(dp0
I500000
F500000.3
sI1000000
F1000000.3
sI7000000
F7000000.0
sI3500000
F3500000.2
sI9000000
F9000000.0
sI5500000
F5500000.0
sI2000000
F2000000.2
sI7500000
F7500000.0
sI4000000
F4000000.2
sI9500000
F9500000.0
sI6000000
F6000000.0
sI2500000
F2500000.2
sI8000000
F8000000.0
sI4500000
F4500000.0
sI5000000
F5000000.0
sI6500000
F6500000.0
sI3000000
F3000000.2
sI1500000
F1500000.2
sI8500000
F8500000.0
s.