(dp0
I2000000
F2000000.0
sI7000000
F7000000.0
sI14000000
F14000000.0
sI18500000
F16777216.0
sI15000000
F15000000.0
sI11500000
F11500000.0
sI8000000
F8000000.0
sI4500000
F4500000.0
sI500000
F500000.0
sI19500000
F16777216.0
sI16000000
F16000000.0
sI12500000
F12500000.0
sI9000000
F9000000.0
sI5500000
F5500000.0
sI17000000
F16777216.0
sI13500000
F13500000.0
sI10000000
F10000000.0
sI6500000
F6500000.0
sI3000000
F3000000.0
sI1000000
F1000000.0
sI10500000
F10500000.0
sI17500000
F16777216.0
sI18000000
F16777216.0
sI14500000
F14500000.0
sI11000000
F11000000.0
sI7500000
F7500000.0
sI4000000
F4000000.0
sI5000000
F5000000.0
sI19000000
F16777216.0
sI15500000
F15500000.0
sI12000000
F12000000.0
sI8500000
F8500000.0
sI3500000
F3500000.0
sI1500000
F1500000.0
sI16500000
F16500000.0
sI13000000
F13000000.0
sI9500000
F9500000.0
sI6000000
F6000000.0
sI2500000
F2500000.0
s.