(dp0
I128
(lp1
F0.0288
aF0.0134
aF0.0156
aF0.0139
aF0.0079
aF0.0066
aF0.0056
aF0.0045
asI129
(lp2
F0.0192
aF0.0091
aF0.0059
aF0.0046
aF0.0066
aF0.0056
aF0.0049
aF0.0101
asI130
(lp3
F0.0159
aF0.0173
aF0.0051
aF0.0038
aF0.0058
aF0.0047
aF0.0039
aF0.0095
asI131
(lp4
F0.0144
aF0.0071
aF0.0124
aF0.0037
aF0.0056
aF0.0047
aF0.0041
aF0.0096
asI132
(lp5
F0.0141
aF0.0071
aF0.0051
aF0.0037
aF0.0099
aF0.0047
aF0.0042
aF0.0075
asI133
(lp6
F0.0148
aF0.0177
aF0.0116
aF0.0039
aF0.0134
aF0.0051
aF0.0042
aF0.0076
asI134
(lp7
F0.0149
aF0.0075
aF0.0056
aF0.004
aF0.0096
aF0.0051
aF0.0044
aF0.0038
asI135
(lp8
F0.0152
aF0.0167
aF0.0052
aF0.004
aF0.0062
aF0.0052
aF0.0045
aF0.0095
asI136
(lp9
F0.0155
aF0.0086
aF0.0132
aF0.0041
aF0.0063
aF0.0136
aF0.0122
aF0.0039
asI137
(lp10
F0.0158
aF0.008
aF0.0055
aF0.0043
aF0.0064
aF0.0085
aF0.0048
aF0.0049
asI138
(lp11
F0.0162
aF0.0082
aF0.0136
aF0.0043
aF0.0065
aF0.0128
aF0.0052
aF0.0077
asI139
(lp12
F0.0164
aF0.0083
aF0.014
aF0.0115
aF0.0066
aF0.0057
aF0.0126
aF0.0044
asI140
(lp13
F0.0169
aF0.0194
aF0.0141
aF0.0045
aF0.0124
aF0.0058
aF0.005
aF0.0083
asI141
(lp14
F0.0176
aF0.0087
aF0.0135
aF0.0048
aF0.0069
aF0.0093
aF0.0118
aF0.0044
asI142
(lp15
F0.018
aF0.0089
aF0.0106
aF0.0089
aF0.0072
aF0.0059
aF0.0052
aF0.0046
asI143
(lp16
F0.0179
aF0.0212
aF0.0062
aF0.0048
aF0.0074
aF0.006
aF0.0054
aF0.0083
asI144
(lp17
F0.0184
aF0.0093
aF0.0063
aF0.0049
aF0.0074
aF0.0062
aF0.0055
aF0.0109
asI145
(lp18
F0.0187
aF0.0095
aF0.0146
aF0.0051
aF0.0134
aF0.0167
aF0.0096
aF0.0063
asI146
(lp19
F0.0192
aF0.0096
aF0.0066
aF0.0052
aF0.0078
aF0.0066
aF0.0057
aF0.008
asI147
(lp20
F0.0195
aF0.0226
aF0.0161
aF0.0125
aF0.0077
aF0.011
aF0.0061
aF0.0051
asI148
(lp21
F0.0198
aF0.01
aF0.017
aF0.0053
aF0.0088
aF0.0068
aF0.0059
aF0.0055
asI149
(lp22
F0.0202
aF0.0103
aF0.007
aF0.013
aF0.0081
aF0.0069
aF0.0066
aF0.0052
asI150
(lp23
F0.0223
aF0.0107
aF0.0175
aF0.0056
aF0.0083
aF0.0071
aF0.0163
aF0.0054
asI151
(lp24
F0.0217
aF0.0107
aF0.0074
aF0.0057
aF0.0155
aF0.0077
aF0.0068
aF0.0056
asI152
(lp25
F0.0214
aF0.0242
aF0.0081
aF0.0138
aF0.0086
aF0.0074
aF0.0063
aF0.0055
asI153
(lp26
F0.022
aF0.0111
aF0.019
aF0.0158
aF0.0089
aF0.0198
aF0.0172
aF0.0058
asI154
(lp27
F0.023
aF0.0115
aF0.0191
aF0.0061
aF0.0092
aF0.0077
aF0.0065
aF0.0065
asI155
(lp28
F0.0239
aF0.0116
aF0.008
aF0.0154
aF0.0092
aF0.0201
aF0.0067
aF0.014
asI156
(lp29
F0.0234
aF0.0118
aF0.0082
aF0.0063
aF0.0094
aF0.0079
aF0.0126
aF0.0062
asI157
(lp30
F0.0298
aF0.0137
aF0.0084
aF0.0064
aF0.0096
aF0.008
aF0.007
aF0.0163
asI158
(lp31
F0.0253
aF0.0123
aF0.0085
aF0.0066
aF0.0096
aF0.0083
aF0.0073
aF0.0156
asI159
(lp32
F0.0245
aF0.0124
aF0.0085
aF0.0066
aF0.0099
aF0.0084
aF0.0073
aF0.0063
asI160
(lp33
F0.0256
aF0.0128
aF0.0087
aF0.0068
aF0.0101
aF0.0085
aF0.0168
aF0.0064
asI161
(lp34
F0.0263
aF0.0132
aF0.0089
aF0.0175
aF0.0104
aF0.0086
aF0.0076
aF0.0178
asI162
(lp35
F0.0259
aF0.0132
aF0.021
aF0.0181
aF0.0114
aF0.0088
aF0.0083
aF0.0178
asI163
(lp36
F0.0272
aF0.0321
aF0.0093
aF0.0071
aF0.0107
aF0.0089
aF0.0078
aF0.0069
asI164
(lp37
F0.0273
aF0.0331
aF0.0234
aF0.0176
aF0.0108
aF0.0092
aF0.0082
aF0.0075
asI165
(lp38
F0.0279
aF0.0139
aF0.0223
aF0.0074
aF0.0183
aF0.0092
aF0.0084
aF0.0072
asI166
(lp39
F0.0277
aF0.0328
aF0.0097
aF0.0076
aF0.0198
aF0.0094
aF0.0082
aF0.0171
asI167
(lp40
F0.0295
aF0.0144
aF0.023
aF0.0077
aF0.0117
aF0.0098
aF0.0213
aF0.0074
asI168
(lp41
F0.0289
aF0.0147
aF0.0101
aF0.0078
aF0.0118
aF0.0215
aF0.0201
aF0.0197
asI169
(lp42
F0.03
aF0.015
aF0.0103
aF0.0085
aF0.0119
aF0.0098
aF0.0198
aF0.0077
asI170
(lp43
F0.0299
aF0.0152
aF0.0252
aF0.0081
aF0.0121
aF0.0101
aF0.0215
aF0.0079
asI171
(lp44
F0.0309
aF0.0155
aF0.0106
aF0.0082
aF0.0124
aF0.0108
aF0.0094
aF0.0209
asI172
(lp45
F0.0316
aF0.0366
aF0.0255
aF0.0217
aF0.0127
aF0.0237
aF0.0241
aF0.0186
asI173
(lp46
F0.0319
aF0.0161
aF0.011
aF0.0085
aF0.0226
aF0.0107
aF0.0216
aF0.0134
asI174
(lp47
F0.032
aF0.0165
aF0.0112
aF0.0087
aF0.0132
aF0.011
aF0.0223
aF0.0187
asI175
(lp48
F0.0328
aF0.0171
aF0.0114
aF0.0215
aF0.0131
aF0.0111
aF0.0095
aF0.0203
asI176
(lp49
F0.0337
aF0.0169
aF0.0116
aF0.0089
aF0.0133
aF0.0198
aF0.0098
aF0.0086
asI177
(lp50
F0.0338
aF0.0172
aF0.0118
aF0.0095
aF0.0141
aF0.0127
aF0.0104
aF0.0089
asI178
(lp51
F0.035
aF0.0175
aF0.0299
aF0.0093
aF0.0241
aF0.0117
aF0.0105
aF0.0091
asI179
(lp52
F0.0352
aF0.0423
aF0.0123
aF0.0243
aF0.0142
aF0.0127
aF0.011
aF0.0103
asI180
(lp53
F0.0361
aF0.0181
aF0.0124
aF0.0095
aF0.0148
aF0.0237
aF0.0113
aF0.0098
asI181
(lp54
F0.036
aF0.0183
aF0.0126
aF0.0242
aF0.0148
aF0.0123
aF0.0106
aF0.0096
asI182
(lp55
F0.0365
aF0.0187
aF0.0129
aF0.01
aF0.0153
aF0.0124
aF0.011
aF0.0217
asI183
(lp56
F0.0378
aF0.0189
aF0.0131
aF0.0102
aF0.0156
aF0.021
aF0.0112
aF0.0253
asI184
(lp57
F0.0387
aF0.0193
aF0.0133
aF0.0102
aF0.0155
aF0.0304
aF0.0113
aF0.0097
asI185
(lp58
F0.0393
aF0.0432
aF0.0135
aF0.0104
aF0.0156
aF0.0132
aF0.0114
aF0.0101
asI186
(lp59
F0.0398
aF0.047
aF0.0312
aF0.0106
aF0.0363
aF0.0141
aF0.02
aF0.0105
asI187
(lp60
F0.0423
aF0.0213
aF0.0146
aF0.0112
aF0.0169
aF0.0364
aF0.0128
aF0.0109
asI188
(lp61
F0.042
aF0.0475
aF0.0148
aF0.0264
aF0.0336
aF0.0231
aF0.0122
aF0.0121
asI189
(lp62
F0.0427
aF0.0486
aF0.0351
aF0.0297
aF0.0173
aF0.0145
aF0.0123
aF0.0279
asI190
(lp63
F0.0435
aF0.0223
aF0.0154
aF0.0119
aF0.0176
aF0.0149
aF0.0127
aF0.0112
asI191
(lp64
F0.0434
aF0.049
aF0.015
aF0.0116
aF0.0173
aF0.0146
aF0.0127
aF0.0282
asI192
(lp65
F0.0429
aF0.0695
aF0.0182
aF0.0125
aF0.0185
aF0.0149
aF0.0135
aF0.0184
asI193
(lp66
F0.0443
aF0.0222
aF0.036
aF0.029
aF0.0315
aF0.0328
aF0.013
aF0.0115
asI194
(lp67
F0.0444
aF0.023
aF0.038
aF0.0287
aF0.0181
aF0.027
aF0.0316
aF0.012
asI195
(lp68
F0.0448
aF0.023
aF0.0157
aF0.0123
aF0.0298
aF0.0153
aF0.0133
aF0.0119
asI196
(lp69
F0.0455
aF0.0232
aF0.016
aF0.0123
aF0.0189
aF0.036
aF0.0301
aF0.0314
asI197
(lp70
F0.0468
aF0.0236
aF0.0164
aF0.0299
aF0.0192
aF0.0158
aF0.0137
aF0.0312
asI198
(lp71
F0.0478
aF0.024
aF0.0389
aF0.0128
aF0.0161
aF0.0416
aF0.014
aF0.0124
asI199
(lp72
F0.0485
aF0.0551
aF0.0168
aF0.033
aF0.0206
aF0.0166
aF0.0146
aF0.0148
asI200
(lp73
F0.0495
aF0.025
aF0.0171
aF0.0131
aF0.0199
aF0.0171
aF0.0228
aF0.0132
asI201
(lp74
F0.0495
aF0.0778
aF0.0562
aF0.0274
aF0.0207
aF0.0171
aF0.0146
aF0.0146
asI202
(lp75
F0.0509
aF0.0587
aF0.0451
aF0.0254
aF0.0205
aF0.0178
aF0.0329
aF0.0133
asI203
(lp76
F0.0509
aF0.0261
aF0.018
aF0.0139
aF0.0207
aF0.0176
aF0.0175
aF0.0142
asI204
(lp77
F0.0534
aF0.0269
aF0.0185
aF0.0255
aF0.0214
aF0.0176
aF0.0156
aF0.0302
asI205
(lp78
F0.0525
aF0.0268
aF0.0184
aF0.0147
aF0.0222
aF0.0185
aF0.0158
aF0.0146
asI206
(lp79
F0.0545
aF0.0447
aF0.0273
aF0.0183
aF0.0395
aF0.0188
aF0.016
aF0.0323
asI207
(lp80
F0.0543
aF0.0404
aF0.0206
aF0.015
aF0.0233
aF0.0185
aF0.0164
aF0.0365
asI208
(lp81
F0.055
aF0.0282
aF0.0469
aF0.0149
aF0.0226
aF0.0187
aF0.0164
aF0.0151
asI209
(lp82
F0.0554
aF0.0283
aF0.0198
aF0.0151
aF0.0226
aF0.0188
aF0.0163
aF0.0352
asI210
(lp83
F0.0562
aF0.0618
aF0.0285
aF0.0164
aF0.0231
aF0.0311
aF0.0165
aF0.0149
asI211
(lp84
F0.0579
aF0.0616
aF0.0361
aF0.0188
aF0.0289
aF0.0201
aF0.017
aF0.0306
asI212
(lp85
F0.0576
aF0.0296
aF0.0476
aF0.0409
aF0.0238
aF0.0514
aF0.0173
aF0.0153
asI213
(lp86
F0.0611
aF0.0709
aF0.0231
aF0.016
aF0.0242
aF0.0201
aF0.0187
aF0.0222
asI214
(lp87
F0.0603
aF0.0933
aF0.022
aF0.0162
aF0.0243
aF0.0206
aF0.018
aF0.0157
asI215
(lp88
F0.0613
aF0.0307
aF0.0212
aF0.0164
aF0.0444
aF0.0206
aF0.018
aF0.0164
asI216
(lp89
F0.0615
aF0.0322
aF0.0217
aF0.0503
aF0.0262
aF0.0229
aF0.0183
aF0.0159
asI217
(lp90
F0.0629
aF0.048
aF0.0233
aF0.0169
aF0.0263
aF0.0374
aF0.0182
aF0.0428
asI218
(lp91
F0.0634
aF0.0933
aF0.0232
aF0.0171
aF0.0243
aF0.0224
aF0.0432
aF0.0175
asI219
(lp92
F0.067
aF0.0333
aF0.0227
aF0.0175
aF0.0288
aF0.0221
aF0.0201
aF0.0179
asI220
(lp93
F0.0661
aF0.0698
aF0.0408
aF0.0219
aF0.026
aF0.0244
aF0.0211
aF0.044
asI221
(lp94
F0.0688
aF0.0347
aF0.0238
aF0.0181
aF0.028
aF0.0231
aF0.0218
aF0.0175
asI222
(lp95
F0.0672
aF0.0535
aF0.0755
aF0.0354
aF0.0273
aF0.0228
aF0.0209
aF0.0183
asI223
(lp96
F0.0677
aF0.0365
aF0.024
aF0.0184
aF0.0282
aF0.0234
aF0.0459
aF0.026
asI224
(lp97
F0.0709
aF0.0358
aF0.0242
aF0.0185
aF0.048
aF0.0245
aF0.0201
aF0.0178
asI225
(lp98
F0.0701
aF0.0474
aF0.0276
aF0.0479
aF0.0283
aF0.0245
aF0.0442
aF0.0183
asI226
(lp99
F0.0729
aF0.1109
aF0.112
aF0.0219
aF0.0414
aF0.0242
aF0.0211
aF0.0186
asI227
(lp100
F0.0721
aF0.0498
aF0.0276
aF0.0362
aF0.0292
aF0.0246
aF0.0552
aF0.0187
asI228
(lp101
F0.0728
aF0.0585
aF0.097
aF0.0226
aF0.03
aF0.025
aF0.0214
aF0.019
asI229
(lp102
F0.0737
aF0.0553
aF0.0639
aF0.0199
aF0.0515
aF0.0251
aF0.0569
aF0.0239
asI230
(lp103
F0.0739
aF0.0494
aF0.0274
aF0.0202
aF0.0305
aF0.0261
aF0.0267
aF0.0197
asI231
(lp104
F0.0753
aF0.0564
aF0.0834
aF0.0923
aF0.0404
aF0.0297
aF0.0282
aF0.0198
asI232
(lp105
F0.0768
aF0.0865
aF0.0913
aF0.03
aF0.0389
aF0.0314
aF0.0231
aF0.0201
asI233
(lp106
F0.0771
aF0.0588
aF0.0671
aF0.0209
aF0.0563
aF0.062
aF0.0231
aF0.029
asI234
(lp107
F0.079
aF0.0609
aF0.0964
aF0.0225
aF0.0321
aF0.0264
aF0.0254
aF0.0211
asI235
(lp108
F0.0788
aF0.0623
aF0.0344
aF0.0534
aF0.0671
aF0.0444
aF0.0234
aF0.0217
asI236
(lp109
F0.0813
aF0.0582
aF0.0306
aF0.0216
aF0.0705
aF0.0276
aF0.0264
aF0.0223
asI237
(lp110
F0.0832
aF0.0578
aF0.0306
aF0.0265
aF0.0367
aF0.0659
aF0.0501
aF0.022
asI238
(lp111
F0.0833
aF0.11
aF0.0878
aF0.0223
aF0.0374
aF0.0288
aF0.062
aF0.0228
asI239
(lp112
F0.086
aF0.0652
aF0.0472
aF0.0251
aF0.0327
aF0.0747
aF0.0276
aF0.026
asI240
(lp113
F0.0858
aF0.0439
aF0.0296
aF0.0228
aF0.028
aF0.0287
aF0.0257
aF0.022
asI241
(lp114
F0.0866
aF0.0658
aF0.036
aF0.0244
aF0.035
aF0.0475
aF0.0255
aF0.0232
asI242
(lp115
F0.0876
aF0.047
aF0.0742
aF0.0627
aF0.0366
aF0.0312
aF0.0271
aF0.0606
asI243
(lp116
F0.0937
aF0.0472
aF0.0772
aF0.0407
aF0.0632
aF0.0342
aF0.0282
aF0.0303
asI244
(lp117
F0.094
aF0.0522
aF0.0342
aF0.0269
aF0.0374
aF0.0357
aF0.0305
aF0.0284
asI245
(lp118
F0.0957
aF0.0658
aF0.0376
aF0.0472
aF0.0363
aF0.0315
aF0.0262
aF0.0309
asI246
(lp119
F0.0937
aF0.1039
aF0.0361
aF0.0603
aF0.0388
aF0.0328
aF0.027
aF0.0239
asI247
(lp120
F0.0944
aF0.0756
aF0.0717
aF0.0259
aF0.0398
aF0.0345
aF0.0296
aF0.0629
asI248
(lp121
F0.1018
aF0.0571
aF0.0371
aF0.0367
aF0.0402
aF0.036
aF0.0283
aF0.065
asI249
(lp122
F0.0973
aF0.0488
aF0.0332
aF0.0601
aF0.0393
aF0.0322
aF0.0296
aF0.0587
asI250
(lp123
F0.0965
aF0.0522
aF0.0341
aF0.0261
aF0.0313
aF0.0771
aF0.0325
aF0.0323
asI251
(lp124
F0.1097
aF0.093
aF0.1006
aF0.0294
aF0.0435
aF0.0368
aF0.0609
aF0.028
asI252
(lp125
F0.1086
aF0.0762
aF0.0744
aF0.0297
aF0.072
aF0.0368
aF0.0345
aF0.029
asI253
(lp126
F0.1094
aF0.1238
aF0.0655
aF0.0528
aF0.0432
aF0.04
aF0.036
aF0.0668
asI254
(lp127
F0.1171
aF0.0862
aF0.0592
aF0.0727
aF0.0482
aF0.0404
aF0.0355
aF0.0351
asI255
(lp128
F0.1027
aF0.0834
aF0.1002
aF0.0671
aF0.0412
aF0.0351
aF0.0349
aF0.063
asI256
(lp129
F0.1046
aF0.0758
aF0.0626
aF0.0838
aF0.0417
aF0.0353
aF0.0721
aF0.027
asI257
(lp130
F0.1114
aF0.092
aF0.0713
aF0.0841
aF0.0428
aF0.036
aF0.0333
aF0.0686
asI258
(lp131
F0.1414
aF0.1022
aF0.0599
aF0.0849
aF0.0435
aF0.0373
aF0.038
aF0.0278
asI259
(lp132
F0.1077
aF0.0764
aF0.0665
aF0.0323
aF0.0338
aF0.0377
aF0.0366
aF0.0282
asI260
(lp133
F0.1086
aF0.0847
aF0.0763
aF0.0717
aF0.0442
aF0.0381
aF0.0321
aF0.0327
asI261
(lp134
F0.1109
aF0.1629
aF0.0395
aF0.0546
aF0.0464
aF0.0645
aF0.0325
aF0.0285
asI262
(lp135
F0.1192
aF0.093
aF0.0408
aF0.0305
aF0.0447
aF0.0372
aF0.0336
aF0.0351
asI263
(lp136
F0.1142
aF0.0712
aF0.0495
aF0.0323
aF0.0409
aF0.0379
aF0.0346
aF0.0291
asI264
(lp137
F0.1184
aF0.0881
aF0.0755
aF0.1258
aF0.0456
aF0.041
aF0.034
aF0.0296
asI265
(lp138
F0.1169
aF0.0899
aF0.1132
aF0.0347
aF0.046
aF0.0397
aF0.0395
aF0.039
asI266
(lp139
F0.1177
aF0.0918
aF0.046
aF0.0334
aF0.0396
aF0.0405
aF0.0374
aF0.0306
asI267
(lp140
F0.118
aF0.0774
aF0.0416
aF0.035
aF0.0388
aF0.0406
aF0.0891
aF0.0306
asI268
(lp141
F0.1192
aF0.0949
aF0.1059
aF0.0328
aF0.0404
aF0.0404
aF0.0354
aF0.0323
asI269
(lp142
F0.1214
aF0.083
aF0.0918
aF0.0329
aF0.0892
aF0.043
aF0.0398
aF0.0834
asI270
(lp143
F0.1223
aF0.0629
aF0.0431
aF0.0617
aF0.0899
aF0.0455
aF0.0375
aF0.032
asI271
(lp144
F0.1258
aF0.0945
aF0.052
aF0.1032
aF0.0518
aF0.0417
aF0.0362
aF0.0326
asI272
(lp145
F0.1272
aF0.1771
aF0.0693
aF0.1304
aF0.0967
aF0.043
aF0.0455
aF0.0865
asI273
(lp146
F0.129
aF0.1048
aF0.0733
aF0.0933
aF0.1173
aF0.0685
aF0.086
aF0.076
asI274
(lp147
F0.1304
aF0.1605
aF0.046
aF0.0355
aF0.088
aF0.0434
aF0.038
aF0.0338
asI275
(lp148
F0.1324
aF0.1696
aF0.0461
aF0.0382
aF0.086
aF0.1129
aF0.038
aF0.0366
asI276
(lp149
F0.1321
aF0.1046
aF0.0481
aF0.0864
aF0.0517
aF0.0444
aF0.087
aF0.0344
asI277
(lp150
F0.134
aF0.1049
aF0.0515
aF0.0366
aF0.0856
aF0.0447
aF0.0388
aF0.0348
asI278
(lp151
F0.1353
aF0.0927
aF0.1644
aF0.0951
aF0.0479
aF0.105
aF0.0393
aF0.0346
asI279
(lp152
F0.1389
aF0.0712
aF0.0639
aF0.0382
aF0.0474
aF0.106
aF0.0401
aF0.0347
asI280
(lp153
F0.1401
aF0.2017
aF0.0495
aF0.0381
aF0.0544
aF0.0466
aF0.1031
aF0.0351
asI281
(lp154
F0.1417
aF0.0727
aF0.092
aF0.0386
aF0.0562
aF0.0465
aF0.0466
aF0.0357
asI282
(lp155
F0.1435
aF0.1068
aF0.0518
aF0.0969
aF0.0585
aF0.0467
aF0.0438
aF0.037
asI283
(lp156
F0.1513
aF0.1692
aF0.069
aF0.1035
aF0.0541
aF0.1141
aF0.0514
aF0.0465
asI284
(lp157
F0.1593
aF0.2197
aF0.0697
aF0.0436
aF0.06
aF0.1081
aF0.0451
aF0.04
asI285
(lp158
F0.1545
aF0.1279
aF0.0775
aF0.1069
aF0.0493
aF0.1141
aF0.0442
aF0.0472
asI286
(lp159
F0.1567
aF0.1275
aF0.0562
aF0.1047
aF0.0497
aF0.0508
aF0.0443
aF0.0841
asI287
(lp160
F0.151
aF0.2069
aF0.0877
aF0.0735
aF0.0593
aF0.0497
aF0.0525
aF0.0855
asI288
(lp161
F0.1568
aF0.0806
aF0.0538
aF0.0903
aF0.0494
aF0.0518
aF0.0466
aF0.0404
asI289
(lp162
F0.1554
aF0.1213
aF0.0876
aF0.049
aF0.0513
aF0.0518
aF0.0439
aF0.0872
asI290
(lp163
F0.1562
aF0.1133
aF0.1408
aF0.0428
aF0.0611
aF0.0519
aF0.0459
aF0.0796
asI291
(lp164
F0.1598
aF0.1226
aF0.1752
aF0.0431
aF0.0557
aF0.0531
aF0.0449
aF0.1037
asI292
(lp165
F0.1583
aF0.1271
aF0.0905
aF0.0491
aF0.0694
aF0.0961
aF0.101
aF0.0466
asI293
(lp166
F0.1635
aF0.1305
aF0.0862
aF0.1084
aF0.103
aF0.0541
aF0.0463
aF0.0449
asI294
(lp167
F0.1638
aF0.1267
aF0.0593
aF0.0802
aF0.0627
aF0.136
aF0.0466
aF0.0411
asI295
(lp168
F0.1669
aF0.2374
aF0.1811
aF0.0763
aF0.0817
aF0.0547
aF0.1083
aF0.0495
asI296
(lp169
F0.1662
aF0.1928
aF0.0784
aF0.08
aF0.0655
aF0.0568
aF0.0501
aF0.0539
asI297
(lp170
F0.1717
aF0.0881
aF0.1365
aF0.0464
aF0.064
aF0.1442
aF0.0493
aF0.1083
asI298
(lp171
F0.17
aF0.138
aF0.1357
aF0.1057
aF0.1156
aF0.1017
aF0.0499
aF0.045
asI299
(lp172
F0.1697
aF0.1267
aF0.1845
aF0.111
aF0.1349
aF0.0561
aF0.0503
aF0.1013
asI300
(lp173
F0.1732
aF0.2878
aF0.0603
aF0.0466
aF0.0682
aF0.0562
aF0.0823
aF0.1144
asI301
(lp174
F0.1755
aF0.1288
aF0.1109
aF0.0832
aF0.0686
aF0.0571
aF0.0524
aF0.048
asI302
(lp175
F0.1757
aF0.1326
aF0.0628
aF0.0481
aF0.0712
aF0.1486
aF0.1289
aF0.0516
asI303
(lp176
F0.1841
aF0.1036
aF0.1134
aF0.1681
aF0.0691
aF0.1538
aF0.0559
aF0.0461
asI304
(lp177
F0.1812
aF0.1374
aF0.0657
aF0.111
aF0.0711
aF0.0596
aF0.0538
aF0.0466
asI305
(lp178
F0.1854
aF0.097
aF0.1983
aF0.0741
aF0.0639
aF0.0509
aF0.0534
aF0.051
asI306
(lp179
F0.1856
aF0.141
aF0.0663
aF0.1195
aF0.1525
aF0.0582
aF0.1349
aF0.118
asI307
(lp180
F0.2256
aF0.1435
aF0.1115
aF0.0549
aF0.0682
aF0.0973
aF0.0598
aF0.0505
asI308
(lp181
F0.1893
aF0.1492
aF0.1962
aF0.057
aF0.0644
aF0.0613
aF0.0535
aF0.0503
asI309
(lp182
F0.188
aF0.2348
aF0.0728
aF0.0514
aF0.074
aF0.0623
aF0.0566
aF0.0582
asI310
(lp183
F0.1922
aF0.1387
aF0.089
aF0.1304
aF0.0841
aF0.0661
aF0.0554
aF0.067
asI311
(lp184
F0.1968
aF0.1394
aF0.2235
aF0.1355
aF0.0642
aF0.139
aF0.0599
aF0.0501
asI312
(lp185
F0.1995
aF0.1508
aF0.1083
aF0.0537
aF0.0665
aF0.0655
aF0.1288
aF0.1276
asI313
(lp186
F0.2367
aF0.1673
aF0.0994
aF0.135
aF0.0644
aF0.1738
aF0.0561
aF0.0615
asI314
(lp187
F0.2005
aF0.2218
aF0.1645
aF0.0616
aF0.0688
aF0.0675
aF0.0586
aF0.1326
asI315
(lp188
F0.2512
aF0.2888
aF0.2076
aF0.0987
aF0.0815
aF0.0697
aF0.059
aF0.1193
asI316
(lp189
F0.2129
aF0.1574
aF0.0763
aF0.1429
aF0.0738
aF0.1469
aF0.0619
aF0.0543
asI317
(lp190
F0.2157
aF0.1557
aF0.0766
aF0.0586
aF0.1799
aF0.0696
aF0.0599
aF0.0655
asI318
(lp191
F0.2598
aF0.1563
aF0.0768
aF0.0593
aF0.0833
aF0.0697
aF0.0611
aF0.0581
asI319
(lp192
F0.2091
aF0.1562
aF0.1185
aF0.0585
aF0.0791
aF0.1524
aF0.1568
aF0.0534
asI320
(lp193
F0.2126
aF0.1383
aF0.1226
aF0.0602
aF0.073
aF0.0686
aF0.0631
aF0.054
asI321
(lp194
F0.215
aF0.2745
aF0.0753
aF0.1783
aF0.0839
aF0.177
aF0.1391
aF0.0537
asI322
(lp195
F0.2174
aF0.1588
aF0.093
aF0.0591
aF0.085
aF0.0734
aF0.065
aF0.0576
asI323
(lp196
F0.217
aF0.112
aF0.0769
aF0.1347
aF0.1865
aF0.0729
aF0.066
aF0.0608
asI324
(lp197
F0.2225
aF0.1438
aF0.1237
aF0.0641
aF0.1869
aF0.0739
aF0.0637
aF0.1339
asI325
(lp198
F0.2211
aF0.2781
aF0.078
aF0.107
aF0.087
aF0.1729
aF0.0638
aF0.0581
asI326
(lp199
F0.2265
aF0.1695
aF0.1813
aF0.061
aF0.1393
aF0.0775
aF0.0642
aF0.0563
asI327
(lp200
F0.2294
aF0.1569
aF0.0949
aF0.1095
aF0.0798
aF0.074
aF0.067
aF0.134
asI328
(lp201
F0.2298
aF0.3019
aF0.1449
aF0.1632
aF0.0789
aF0.0759
aF0.0662
aF0.0652
asI329
(lp202
F0.2322
aF0.1548
aF0.1209
aF0.1831
aF0.1693
aF0.1267
aF0.1688
aF0.0673
asI330
(lp203
F0.2397
aF0.1494
aF0.2357
aF0.1117
aF0.0816
aF0.1309
aF0.0681
aF0.0631
asI331
(lp204
F0.2366
aF0.3007
aF0.112
aF0.0665
aF0.2039
aF0.1994
aF0.1528
aF0.0686
asI332
(lp205
F0.2358
aF0.137
aF0.0847
aF0.0638
aF0.1003
aF0.0777
aF0.0697
aF0.1473
asI333
(lp206
F0.2761
aF0.1848
aF0.19
aF0.1505
aF0.091
aF0.1334
aF0.0675
aF0.0606
asI334
(lp207
F0.2404
aF0.1437
aF0.2478
aF0.0654
aF0.0936
aF0.0788
aF0.0697
aF0.0702
asI335
(lp208
F0.2506
aF0.1726
aF0.0899
aF0.0798
aF0.1018
aF0.1369
aF0.0778
aF0.0689
asI336
(lp209
F0.2546
aF0.1732
aF0.0906
aF0.0821
aF0.0842
aF0.0938
aF0.0775
aF0.0676
asI337
(lp210
F0.274
aF0.3356
aF0.0912
aF0.1693
aF0.1667
aF0.0843
aF0.1661
aF0.1652
asI338
(lp211
F0.2594
aF0.1841
aF0.2631
aF0.1137
aF0.0902
aF0.0859
aF0.0726
aF0.0665
asI339
(lp212
F0.2578
aF0.1402
aF0.2062
aF0.1215
aF0.0907
aF0.0841
aF0.072
aF0.0713
asI340
(lp213
F0.254
aF0.1834
aF0.1405
aF0.0703
aF0.0918
aF0.083
aF0.0726
aF0.0658
asI341
(lp214
F0.2555
aF0.1894
aF0.2592
aF0.1235
aF0.0998
aF0.0841
aF0.1834
aF0.1645
asI342
(lp215
F0.259
aF0.187
aF0.1438
aF0.0717
aF0.0893
aF0.1867
aF0.0738
aF0.1646
asI343
(lp216
F0.3102
aF0.2034
aF0.2096
aF0.1698
aF0.1026
aF0.0866
aF0.0742
aF0.0791
asI344
(lp217
F0.3047
aF0.1909
aF0.2204
aF0.1268
aF0.103
aF0.2161
aF0.0789
aF0.0758
asI345
(lp218
F0.2696
aF0.2018
aF0.1492
aF0.1405
aF0.0892
aF0.0879
aF0.1945
aF0.1587
asI346
(lp219
F0.2718
aF0.1962
aF0.1445
aF0.1752
aF0.0987
aF0.2222
aF0.0765
aF0.0721
asI347
(lp220
F0.2866
aF0.2098
aF0.1428
aF0.0781
aF0.0994
aF0.0987
aF0.0804
aF0.1788
asI348
(lp221
F0.3384
aF0.2183
aF0.1535
aF0.1296
aF0.2069
aF0.0928
aF0.0812
aF0.0722
asI349
(lp222
F0.2909
aF0.2151
aF0.107
aF0.0919
aF0.1113
aF0.0944
aF0.1776
aF0.1752
asI350
(lp223
F0.2943
aF0.172
aF0.1068
aF0.1319
aF0.107
aF0.0935
aF0.0864
aF0.1764
asI351
(lp224
F0.3414
aF0.3881
aF0.1554
aF0.0796
aF0.2443
aF0.0952
aF0.0907
aF0.083
asI352
(lp225
F0.2912
aF0.3835
aF0.2778
aF0.2594
aF0.1027
aF0.0948
aF0.1856
aF0.1835
asI353
(lp226
F0.2957
aF0.2068
aF0.1052
aF0.1332
aF0.0967
aF0.0953
aF0.0911
aF0.0783
asI354
(lp227
F0.2944
aF0.195
aF0.1515
aF0.0968
aF0.1074
aF0.0961
aF0.0827
aF0.0759
asI355
(lp228
F0.3407
aF0.1532
aF0.1034
aF0.2067
aF0.1056
aF0.0963
aF0.1891
aF0.0821
asI356
(lp229
F0.2994
aF0.1784
aF0.1197
aF0.1408
aF0.2531
aF0.2444
aF0.0838
aF0.1855
asI357
(lp230
F0.3019
aF0.3878
aF0.1072
aF0.2212
aF0.1942
aF0.0988
aF0.0861
aF0.0919
asI358
(lp231
F0.3498
aF0.1601
aF0.1096
aF0.1531
aF0.1179
aF0.2351
aF0.1845
aF0.0857
asI359
(lp232
F0.3143
aF0.2045
aF0.1907
aF0.0843
aF0.124
aF0.1054
aF0.0928
aF0.084
asI360
(lp233
F0.3154
aF0.223
aF0.111
aF0.1056
aF0.2251
aF0.1036
aF0.0986
aF0.0809
asI361
(lp234
F0.317
aF0.201
aF0.1911
aF0.086
aF0.1163
aF0.1045
aF0.0924
aF0.1214
asI362
(lp235
F0.3306
aF0.1631
aF0.1117
aF0.2365
aF0.1122
aF0.1069
aF0.1957
aF0.0798
asI363
(lp236
F0.3184
aF0.2186
aF0.1127
aF0.1561
aF0.1266
aF0.1035
aF0.0895
aF0.0939
asI364
(lp237
F0.3212
aF0.2155
aF0.114
aF0.1317
aF0.2387
aF0.1072
aF0.0928
aF0.082
asI365
(lp238
F0.3235
aF0.2287
aF0.1146
aF0.0915
aF0.2455
aF0.1123
aF0.2121
aF0.0921
asI366
(lp239
F0.3257
aF0.1736
aF0.1164
aF0.3166
aF0.2668
aF0.1088
aF0.095
aF0.0975
asI367
(lp240
F0.3362
aF0.4312
aF0.118
aF0.1602
aF0.2712
aF0.11
aF0.0943
aF0.0904
asI368
(lp241
F0.338
aF0.1977
aF0.1353
aF0.1599
aF0.1185
aF0.1979
aF0.1075
aF0.1184
asI369
(lp242
F0.3522
aF0.2316
aF0.2785
aF0.2259
aF0.1128
aF0.2583
aF0.0949
aF0.087
asI370
(lp243
F0.3447
aF0.2406
aF0.1526
aF0.094
aF0.1197
aF0.1115
aF0.0972
aF0.0875
asI371
(lp244
F0.3448
aF0.215
aF0.1225
aF0.0965
aF0.1109
aF0.1034
aF0.1037
aF0.1925
asI372
(lp245
F0.3555
aF0.1845
aF0.1524
aF0.2231
aF0.1363
aF0.1173
aF0.2215
aF0.1069
asI373
(lp246
F0.3613
aF0.1866
aF0.2965
aF0.1415
aF0.1276
aF0.2099
aF0.0984
aF0.0984
asI374
(lp247
F0.3524
aF0.1859
aF0.1568
aF0.0961
aF0.2332
aF0.1153
aF0.2187
aF0.1977
asI375
(lp248
F0.3665
aF0.443
aF0.1278
aF0.1303
aF0.1393
aF0.135
aF0.1361
aF0.2021
asI376
(lp249
F0.3617
aF0.2096
aF0.2772
aF0.1165
aF0.1203
aF0.1179
aF0.1028
aF0.105
asI377
(lp250
F0.3647
aF0.1918
aF0.1609
aF0.1605
aF0.2689
aF0.11
aF0.1079
aF0.094
asI378
(lp251
F0.3778
aF0.2387
aF0.1296
aF0.3267
aF0.1415
aF0.1193
aF0.2123
aF0.096
asI379
(lp252
F0.4241
aF0.5092
aF0.3215
aF0.1727
aF0.1488
aF0.1258
aF0.1138
aF0.2044
asI380
(lp253
F0.4218
aF0.4976
aF0.19
aF0.1245
aF0.2631
aF0.1326
aF0.2385
aF0.1224
asI381
(lp254
F0.4262
aF0.2697
aF0.1923
aF0.1969
aF0.1355
aF0.139
aF0.1201
aF0.1089
asI382
(lp255
F0.4449
aF0.223
aF0.1558
aF0.2585
aF0.1687
aF0.1454
aF0.1276
aF0.1152
asI383
(lp256
F0.3831
aF0.1986
aF0.1702
aF0.285
aF0.1379
aF0.1238
aF0.1082
aF0.1256
asI384
(lp257
F0.3917
aF0.2299
aF0.1386
aF0.1803
aF0.138
aF0.1269
aF0.1069
aF0.1048
asI385
(lp258
F0.3894
aF0.417
aF0.1757
aF0.1655
aF0.1468
aF0.1253
aF0.2766
aF0.109
asI386
(lp259
F0.3926
aF0.3193
aF0.1386
aF0.1069
aF0.1486
aF0.278
aF0.1224
aF0.0991
asI387
(lp260
F0.3944
aF0.4151
aF0.3191
aF0.1062
aF0.1524
aF0.1263
aF0.1797
aF0.1103
asI388
(lp261
F0.4064
aF0.2107
aF0.3353
aF0.2847
aF0.311
aF0.2083
aF0.1122
aF0.1076
asI389
(lp262
F0.397
aF0.2641
aF0.3065
aF0.1076
aF0.1529
aF0.131
aF0.116
aF0.1092
asI390
(lp263
F0.402
aF0.2629
aF0.3506
aF0.1508
aF0.2714
aF0.1292
aF0.1198
aF0.244
asI391
(lp264
F0.4646
aF0.2192
aF0.1445
aF0.2651
aF0.2667
aF0.1367
aF0.1135
aF0.1299
asI392
(lp265
F0.4212
aF0.2332
aF0.3402
aF0.2476
aF0.1461
aF0.1348
aF0.115
aF0.2532
asI393
(lp266
F0.4597
aF0.247
aF0.1539
aF0.1132
aF0.1544
aF0.2515
aF0.1185
aF0.1193
asI394
(lp267
F0.4386
aF0.2233
aF0.1548
aF0.1139
aF0.1457
aF0.1239
aF0.119
aF0.253
asI395
(lp268
F0.4139
aF0.2286
aF0.1455
aF0.2834
aF0.1461
aF0.134
aF0.1182
aF0.2575
asI396
(lp269
F0.4226
aF0.2564
aF0.3894
aF0.1128
aF0.1539
aF0.3249
aF0.2881
aF0.1299
asI397
(lp270
F0.5126
aF0.2789
aF0.1513
aF0.2542
aF0.3051
aF0.1375
aF0.1222
aF0.1163
asI398
(lp271
F0.4639
aF0.2416
aF0.1518
aF0.2009
aF0.1691
aF0.145
aF0.1566
aF0.1668
asI399
(lp272
F0.4644
aF0.2789
aF0.3564
aF0.2029
aF0.1411
aF0.1408
aF0.1215
aF0.1168
asI400
(lp273
F0.4394
aF0.2879
aF0.1548
aF0.1194
aF0.1435
aF0.1419
aF0.2945
aF0.2216
asI401
(lp274
F0.4389
aF0.2323
aF0.1555
aF0.1203
aF0.2847
aF0.1413
aF0.1308
aF0.1199
asI402
(lp275
F0.456
aF0.5364
aF0.1712
aF0.3074
aF0.3101
aF0.1458
aF0.259
aF0.1205
asI403
(lp276
F0.4408
aF0.2596
aF0.1731
aF0.2873
aF0.1645
aF0.1502
aF0.129
aF0.115
asI404
(lp277
F0.448
aF0.2886
aF0.1564
aF0.2837
aF0.1707
aF0.145
aF0.1253
aF0.1127
asI405
(lp278
F0.4492
aF0.2832
aF0.3343
aF0.2156
aF0.1635
aF0.1502
aF0.2327
aF0.1288
asI406
(lp279
F0.4974
aF0.5462
aF0.1991
aF0.3164
aF0.1762
aF0.1544
aF0.138
aF0.271
asI407
(lp280
F0.5155
aF0.3068
aF0.164
aF0.2167
aF0.1751
aF0.1531
aF0.1335
aF0.2644
asI408
(lp281
F0.4987
aF0.2442
aF0.1653
aF0.2259
aF0.1794
aF0.263
aF0.1388
aF0.1236
asI409
(lp282
F0.4763
aF0.2596
aF0.2135
aF0.3282
aF0.1776
aF0.3201
aF0.1325
aF0.1241
asI410
(lp283
F0.4835
aF0.2909
aF0.4102
aF0.1437
aF0.3837
aF0.1404
aF0.2221
aF0.1343
asI411
(lp284
F0.4766
aF0.2982
aF0.1692
aF0.1827
aF0.3332
aF0.1548
aF0.135
aF0.2848
asI412
(lp285
F0.4798
aF0.3048
aF0.4185
aF0.1735
aF0.1845
aF0.2795
aF0.2715
aF0.1312
asI413
(lp286
F0.4889
aF0.3053
aF0.3749
aF0.4139
aF0.3971
aF0.159
aF0.3036
aF0.1299
asI414
(lp287
F0.5002
aF0.3119
aF0.1883
aF0.1346
aF0.1883
aF0.1567
aF0.3322
aF0.1317
asI415
(lp288
F0.4966
aF0.5762
aF0.1786
aF0.3755
aF0.1916
aF0.1602
aF0.1404
aF0.2892
asI416
(lp289
F0.4953
aF0.3062
aF0.2308
aF0.134
aF0.339
aF0.1624
aF0.1427
aF0.1299
asI417
(lp290
F0.5136
aF0.2947
aF0.1762
aF0.3366
aF0.2049
aF0.1639
aF0.1426
aF0.2693
asI418
(lp291
F0.6036
aF0.3077
aF0.1899
aF0.1362
aF0.3589
aF0.164
aF0.303
aF0.1365
asI419
(lp292
F0.5321
aF0.3211
aF0.4482
aF0.3312
aF0.1833
aF0.1632
aF0.146
aF0.3048
asI420
(lp293
F0.5004
aF0.2968
aF0.2345
aF0.2415
aF0.1949
aF0.171
aF0.1459
aF0.1307
asI421
(lp294
F0.5045
aF0.2931
aF0.2408
aF0.441
aF0.1961
aF0.1696
aF0.3574
aF0.1381
asI422
(lp295
F0.5101
aF0.6336
aF0.2275
aF0.1532
aF0.2157
aF0.1745
aF0.3507
aF0.1456
asI423
(lp296
F0.5502
aF0.3223
aF0.4235
aF0.146
aF0.1983
aF0.1688
aF0.1484
aF0.1357
asI424
(lp297
F0.5359
aF0.5739
aF0.4133
aF0.1629
aF0.1813
aF0.1625
aF0.1535
aF0.1468
asI425
(lp298
F0.5532
aF0.3017
aF0.1931
aF0.3545
aF0.1994
aF0.1764
aF0.3034
aF0.2024
asI426
(lp299
F0.568
aF0.2849
aF0.2233
aF0.4473
aF0.1926
aF0.3429
aF0.1686
aF0.2967
asI427
(lp300
F0.5662
aF0.6239
aF0.2039
aF0.2536
aF0.2293
aF0.1912
aF0.3438
aF0.2008
asI428
(lp301
F0.5741
aF0.3087
aF0.2899
aF0.2584
aF0.2083
aF0.1699
aF0.1593
aF0.3097
asI429
(lp302
F0.5775
aF0.3182
aF0.2318
aF0.1962
aF0.2166
aF0.1713
aF0.1587
aF0.1807
asI430
(lp303
F0.5954
aF0.292
aF0.4503
aF0.2386
aF0.2206
aF0.19
aF0.1819
aF0.3073
asI431
(lp304
F0.5806
aF0.6004
aF0.2074
aF0.1674
aF0.3859
aF0.1845
aF0.1769
aF0.1819
asI432
(lp305
F0.6154
aF0.3036
aF0.223
aF0.52
aF0.3579
aF0.1846
aF0.3913
aF0.3203
asI433
(lp306
F0.6263
aF0.6694
aF0.2852
aF0.2637
aF0.1817
aF0.1852
aF0.1627
aF0.1444
asI434
(lp307
F0.5886
aF0.3045
aF0.4509
aF0.1606
aF0.2293
aF0.1804
aF0.1687
aF0.3437
asI435
(lp308
F0.6177
aF0.2958
aF0.2139
aF0.2284
aF0.4204
aF0.1905
aF0.17
aF0.3542
asI436
(lp309
F0.5945
aF0.6492
aF0.4994
aF0.4124
aF0.4459
aF0.1914
aF0.1647
aF0.1536
asI437
(lp310
F0.5843
aF0.3056
aF0.4572
aF0.1617
aF0.3605
aF0.306
aF0.3409
aF0.149
asI438
(lp311
F0.5933
aF0.2959
aF0.2201
aF0.2003
aF0.2261
aF0.1872
aF0.1688
aF0.3031
asI439
(lp312
F0.5841
aF0.3429
aF0.4475
aF0.382
aF0.3294
aF0.1892
aF0.1704
aF0.1748
asI440
(lp313
F0.6102
aF0.3145
aF0.2132
aF0.2749
aF0.1877
aF0.1937
aF0.4165
aF0.1694
asI441
(lp314
F0.6022
aF0.6759
aF0.214
aF0.1824
aF0.2638
aF0.2194
aF0.3731
aF0.1586
asI442
(lp315
F0.6048
aF0.7155
aF0.2273
aF0.4341
aF0.2289
aF0.2085
aF0.1799
aF0.1567
asI443
(lp316
F0.6497
aF0.3254
aF0.2244
aF0.4786
aF0.2356
aF0.1999
aF0.2976
aF0.1654
asI444
(lp317
F0.6334
aF0.3859
aF0.4709
aF0.1775
aF0.216
aF0.1994
aF0.3952
aF0.1937
asI445
(lp318
F0.6879
aF0.3657
aF0.5311
aF0.1752
aF0.2335
aF0.1921
aF0.1745
aF0.3302
asI446
(lp319
F0.6423
aF0.7333
aF0.2304
aF0.1713
aF0.2408
aF0.2049
aF0.184
aF0.1631
asI447
(lp320
F0.6507
aF0.7608
aF0.2491
aF0.3985
aF0.234
aF0.199
aF0.1774
aF0.1674
asI448
(lp321
F0.6676
aF0.3461
aF0.2751
aF0.1697
aF0.2376
aF0.4049
aF0.2811
aF0.163
asI449
(lp322
F0.6896
aF0.3351
aF0.5279
aF0.1816
aF0.5136
aF0.3453
aF0.1775
aF0.1614
asI450
(lp323
F0.6306
aF0.3854
aF0.2212
aF0.171
aF0.2401
aF0.1927
aF0.1747
aF0.3293
asI451
(lp324
F0.657
aF0.3733
aF0.2221
aF0.2934
aF0.3884
aF0.1813
aF0.354
aF0.172
asI452
(lp325
F0.6996
aF0.3598
aF0.2463
aF0.1827
aF0.4461
aF0.2114
aF0.4176
aF0.1664
asI453
(lp326
F0.6506
aF0.3406
aF0.2576
aF0.5362
aF0.4585
aF0.2115
aF0.1805
aF0.1731
asI454
(lp327
F0.6792
aF0.4026
aF0.2462
aF0.2663
aF0.2624
aF0.2191
aF0.1881
aF0.1907
asI455
(lp328
F0.7253
aF0.3531
aF0.51
aF0.1789
aF0.2533
aF0.2093
aF0.3045
aF0.1835
asI456
(lp329
F0.7061
aF0.7114
aF0.2475
aF0.3
aF0.2538
aF0.2191
aF0.3332
aF0.1687
asI457
(lp330
F0.6929
aF0.3977
aF0.5251
aF0.4337
aF0.5291
aF0.22
aF0.1975
aF0.1685
asI458
(lp331
F0.6937
aF0.3908
aF0.2963
aF0.2975
aF0.2535
aF0.2138
aF0.4567
aF0.1839
asI459
(lp332
F0.75
aF0.3903
aF0.4209
aF0.1957
aF0.3979
aF0.226
aF0.4541
aF0.1938
asI460
(lp333
F0.6869
aF0.402
aF0.2782
aF0.5574
aF0.2584
aF0.3782
aF0.1938
aF0.1807
asI461
(lp334
F0.7032
aF0.7924
aF0.2384
aF0.4416
aF0.2126
aF0.2165
aF0.1996
aF0.3693
asI462
(lp335
F0.7159
aF0.4107
aF0.2453
aF0.1822
aF0.2572
aF0.3579
aF0.4224
aF0.4007
asI463
(lp336
F0.7489
aF0.4031
aF0.301
aF0.646
aF0.2433
aF0.2272
aF0.199
aF0.181
asI464
(lp337
F0.7151
aF0.5206
aF0.3565
aF0.2951
aF0.2683
aF0.2286
aF0.4069
aF0.1781
asI465
(lp338
F0.7168
aF0.477
aF0.6293
aF0.5584
aF0.4273
aF0.2283
aF0.3699
aF0.1848
asI466
(lp339
F0.7081
aF0.4228
aF0.6259
aF0.3394
aF0.2681
aF0.227
aF0.2018
aF0.1847
asI467
(lp340
F0.714
aF0.8138
aF0.616
aF0.2121
aF0.2441
aF0.2181
aF0.4122
aF0.1873
asI468
(lp341
F0.7135
aF0.4224
aF0.2775
aF0.2002
aF0.2462
aF0.2409
aF0.2146
aF0.1913
asI469
(lp342
F0.7543
aF0.4041
aF0.2531
aF0.2023
aF0.4863
aF0.224
aF0.4831
aF0.2109
asI470
(lp343
F0.7556
aF0.3826
aF0.2749
aF0.2878
aF0.2723
aF0.2443
aF0.2105
aF0.2047
asI471
(lp344
F0.7483
aF0.4222
aF0.2545
aF0.3282
aF0.2506
aF0.2359
aF0.2061
aF0.1869
asI472
(lp345
F0.7412
aF0.438
aF0.2574
aF0.1992
aF0.2788
aF0.221
aF0.2122
aF0.1932
asI473
(lp346
F0.8066
aF0.8308
aF0.2907
aF0.3446
aF0.2809
aF0.4557
aF0.2386
aF0.2079
asI474
(lp347
F0.7538
aF0.4165
aF0.6102
aF0.264
aF0.2783
aF0.4078
aF0.4927
aF0.4403
asI475
(lp348
F0.8226
aF0.3892
aF0.2977
aF0.4521
aF0.2824
aF0.2443
aF0.4572
aF0.1911
asI476
(lp349
F0.7486
aF0.4103
aF0.3297
aF0.6472
aF0.3081
aF0.4595
aF0.2294
aF0.2102
asI477
(lp350
F0.7496
aF0.892
aF0.2856
aF0.3639
aF0.5017
aF0.2638
aF0.2131
aF0.1966
asI478
(lp351
F0.7574
aF0.4433
aF0.3173
aF0.2064
aF0.2623
aF0.4626
aF0.2256
aF0.2003
asI479
(lp352
F0.7604
aF0.8877
aF0.3266
aF0.2215
aF0.2714
aF0.4684
aF0.2376
aF0.1944
asI480
(lp353
F0.7757
aF0.4051
aF0.2835
aF0.3069
aF0.5382
aF0.2466
aF0.5166
aF0.1999
asI481
(lp354
F0.828
aF0.4281
aF0.325
aF0.3638
aF0.3007
aF0.2543
aF0.4283
aF0.1908
asI482
(lp355
F0.7755
aF0.47
aF0.3286
aF0.2403
aF0.2892
aF0.2428
aF0.2303
aF0.2557
asI483
(lp356
F0.8282
aF0.4485
aF0.6552
aF0.3337
aF0.6327
aF0.2531
aF0.2196
aF0.2061
asI484
(lp357
F0.7805
aF0.4315
aF0.539
aF0.2114
aF0.6552
aF0.2698
aF0.2299
aF0.2001
asI485
(lp358
F0.8006
aF0.6266
aF0.2992
aF0.3782
aF0.3177
aF0.2807
aF0.2953
aF0.2324
asI486
(lp359
F1.2984
aF0.4176
aF0.3057
aF0.3802
aF0.3286
aF0.2759
aF0.2419
aF0.2992
asI487
(lp360
F0.8394
aF0.4315
aF0.3074
aF0.3879
aF0.314
aF0.5924
aF0.5314
aF0.4195
asI488
(lp361
F0.8303
aF0.4274
aF0.292
aF0.6628
aF0.7166
aF0.5502
aF0.2781
aF0.4839
asI489
(lp362
F0.8368
aF0.9417
aF0.4936
aF0.7529
aF0.3264
aF0.2674
aF0.5457
aF0.2601
asI490
(lp363
F0.8402
aF0.4313
aF0.3539
aF0.2488
aF0.6003
aF0.2674
aF0.2345
aF0.2585
asI491
(lp364
F0.8178
aF0.4539
aF0.2861
aF0.2234
aF0.2615
aF0.2658
aF0.2385
aF0.206
asI492
(lp365
F0.8306
aF0.9192
aF0.296
aF0.5543
aF0.6672
aF0.2681
aF0.2351
aF0.5047
asI493
(lp366
F0.8921
aF0.4877
aF0.3437
aF0.3971
aF0.5198
aF0.596
aF0.2509
aF0.5146
asI494
(lp367
F0.8428
aF0.4906
aF0.2925
aF0.4226
aF0.3215
aF0.479
aF0.2498
aF0.5154
asI495
(lp368
F0.8586
aF0.4494
aF0.3496
aF0.2308
aF0.3192
aF0.6475
aF0.2362
aF0.2218
asI496
(lp369
F0.851
aF0.4781
aF0.3008
aF0.2314
aF0.3211
aF0.2802
aF0.5696
aF0.2208
asI497
(lp370
F0.8917
aF0.5021
aF0.6533
aF0.2344
aF0.2741
aF0.2743
aF0.245
aF0.5111
asI498
(lp371
F0.8658
aF0.4442
aF0.7042
aF0.234
aF0.3301
aF0.2826
aF0.2449
aF0.2229
asI499
(lp372
F0.8569
aF0.6633
aF0.3025
aF0.536
aF0.5922
aF0.2853
aF0.2446
aF0.2192
asI500
(lp373
F0.8616
aF0.5015
aF0.3112
aF0.2665
aF0.3328
aF0.4601
aF0.2584
aF0.2363
asI501
(lp374
F1.1371
aF0.4896
aF0.356
aF0.6452
aF0.3335
aF0.2806
aF0.2452
aF0.5095
asI502
(lp375
F0.9564
aF0.9699
aF0.5595
aF0.4293
aF0.3025
aF0.3062
aF0.2456
aF0.2272
asI503
(lp376
F0.8856
aF0.5169
aF0.3677
aF0.4536
aF0.3369
aF0.6544
aF0.6102
aF0.2306
asI504
(lp377
F0.899
aF0.4992
aF0.3303
aF0.2958
aF0.6737
aF0.2912
aF0.2501
aF0.2344
asI505
(lp378
F0.9153
aF1.0078
aF0.3665
aF0.253
aF0.2853
aF0.2926
aF0.5254
aF0.2354
asI506
(lp379
F0.9105
aF0.9729
aF0.7208
aF0.5519
aF0.3431
aF0.5681
aF0.2599
aF0.2272
asI507
(lp380
F1.0679
aF0.6198
aF0.4148
aF0.2934
aF0.4182
aF0.3383
aF0.2995
aF0.2726
asI508
(lp381
F1.0699
aF0.8117
aF0.4261
aF0.6281
aF0.3517
aF0.3458
aF0.5109
aF0.2788
asI509
(lp382
F1.1007
aF1.1339
aF0.4378
aF0.298
aF0.4108
aF0.5262
aF0.3075
aF0.2726
asI510
(lp383
F1.1391
aF0.5881
aF0.3934
aF0.5377
aF0.4409
aF0.3621
aF0.3191
aF0.2975
asI511
(lp384
F0.9295
aF0.505
aF0.327
aF0.7808
aF0.5245
aF0.5805
aF0.2656
aF0.4953
asI512
(lp385
F0.9329
aF0.5198
aF0.7557
aF0.8306
aF0.3555
aF0.2894
aF0.2733
aF0.4716
asI513
(lp386
F0.9408
aF0.5317
aF0.3339
aF0.313
aF0.3683
aF0.3058
aF0.2772
aF0.2504
asI514
(lp387
F0.9488
aF1.1005
aF0.3661
aF0.5788
aF0.2955
aF0.3067
aF0.2829
aF0.5769
asI515
(lp388
F0.9418
aF0.5325
aF0.3541
aF0.4932
aF0.3724
aF0.5756
aF0.2784
aF0.5603
asI516
(lp389
F0.9523
aF0.547
aF0.3845
aF0.4506
aF0.3777
aF0.3061
aF0.2736
aF0.2425
asI517
(lp390
F0.9539
aF0.5208
aF0.786
aF0.2593
aF0.6054
aF0.3413
aF0.2808
aF0.245
asI518
(lp391
F0.9579
aF0.5492
aF0.3382
aF0.2897
aF0.6111
aF0.3227
aF0.299
aF0.5265
asI519
(lp392
F0.9779
aF0.5184
aF0.3448
aF0.8486
aF0.567
aF0.5158
aF0.2758
aF0.2541
asI520
(lp393
F0.9867
aF0.5478
aF0.3492
aF0.3296
aF0.3847
aF0.3198
aF0.2847
aF0.2598
asI521
(lp394
F0.9826
aF0.5633
aF0.3782
aF0.267
aF0.3277
aF0.7022
aF0.3089
aF0.2583
asI522
(lp395
F0.9985
aF0.5561
aF0.8439
aF0.2683
aF0.343
aF0.3328
aF0.2984
aF0.2641
asI523
(lp396
F1.003
aF0.5388
aF0.3575
aF0.6479
aF0.6742
aF0.6892
aF0.3066
aF0.258
asI524
(lp397
F0.9938
aF0.5759
aF0.382
aF0.4826
aF0.652
aF0.3433
aF0.2981
aF0.2596
asI525
(lp398
F1.018
aF0.5514
aF0.7645
aF0.2715
aF0.355
aF0.3525
aF0.3149
aF0.6194
asI526
(lp399
F1.0447
aF0.5651
aF0.3591
aF0.6157
aF0.4065
aF0.3381
aF0.3034
aF0.2855
asI527
(lp400
F1.0271
aF1.1195
aF0.8244
aF0.8177
aF0.403
aF0.35
aF0.3069
aF0.273
asI528
(lp401
F1.0263
aF1.1994
aF0.4156
aF0.6697
aF0.7893
aF0.6656
aF0.3068
aF0.2687
asI529
(lp402
F1.0326
aF0.5866
aF0.3888
aF0.5411
aF0.6954
aF0.3426
aF0.3005
aF0.2675
asI530
(lp403
F1.0347
aF1.1264
aF0.3995
aF0.2814
aF0.3527
aF0.352
aF0.3078
aF0.2744
asI531
(lp404
F1.0389
aF0.5762
aF0.4162
aF0.3899
aF0.4049
aF0.3486
aF0.3154
aF0.2739
asI532
(lp405
F1.0393
aF0.5738
aF0.4153
aF0.7045
aF0.3668
aF0.3543
aF0.309
aF0.5596
asI533
(lp406
F1.0466
aF1.1796
aF0.4005
aF0.2853
aF0.4384
aF0.3583
aF0.6935
aF0.285
asI534
(lp407
F1.0585
aF1.2061
aF0.8564
aF0.7063
aF0.4221
aF0.3554
aF0.3082
aF0.6416
asI535
(lp408
F1.0679
aF0.5914
aF0.3953
aF0.7069
aF0.4238
aF0.7111
aF0.3168
aF0.2901
asI536
(lp409
F1.0815
aF1.2377
aF0.4153
aF0.7926
aF0.434
aF0.3552
aF0.31
aF0.2943
asI537
(lp410
F1.0857
aF1.2203
aF0.7715
aF0.7128
aF0.6746
aF0.3581
aF0.6178
aF0.2904
asI538
(lp411
F1.0844
aF0.62
aF0.8153
aF0.5316
aF0.965
aF0.3561
aF0.7131
aF0.285
asI539
(lp412
F1.0982
aF0.7077
aF0.4246
aF0.2989
aF0.9298
aF0.3648
aF0.3314
aF0.297
asI540
(lp413
F1.1026
aF0.618
aF0.8816
aF0.5194
aF0.4681
aF0.4
aF0.357
aF0.6417
asI541
(lp414
F1.1028
aF0.5714
aF0.8473
aF0.7217
aF0.381
aF0.3232
aF0.3308
aF0.3075
asI542
(lp415
F1.1452
aF0.6136
aF0.4048
aF0.3008
aF0.4412
aF0.3746
aF0.5213
aF0.3007
asI543
(lp416
F1.1732
aF0.6347
aF0.4014
aF0.5424
aF0.6761
aF0.3774
aF0.3301
aF0.3013
asI544
(lp417
F1.1894
aF0.6097
aF0.884
aF0.6849
aF0.433
aF0.3808
aF0.7464
aF0.5876
asI545
(lp418
F1.1705
aF0.641
aF0.5176
aF0.3083
aF0.4398
aF0.3791
aF0.7414
aF0.2996
asI546
(lp419
F1.1755
aF1.3095
aF0.4446
aF0.7425
aF0.3921
aF0.3805
aF0.349
aF0.318
asI547
(lp420
F1.1376
aF1.3823
aF0.8868
aF0.3089
aF0.7316
aF0.3868
aF0.3412
aF0.6102
asI548
(lp421
F1.1724
aF0.6478
aF0.4013
aF0.3094
aF0.461
aF0.3906
aF0.3359
aF0.3055
asI549
(lp422
F1.1456
aF0.645
aF1.0197
aF0.9434
aF0.7753
aF0.392
aF0.3449
aF0.3039
asI550
(lp423
F1.1821
aF0.6212
aF0.9741
aF0.3807
aF0.4847
aF0.3905
aF0.3423
aF0.6013
asI551
(lp424
F1.2155
aF0.6465
aF0.4595
aF0.3183
aF0.4699
aF0.3933
aF0.3552
aF0.3182
asI552
(lp425
F1.1766
aF1.3596
aF0.4295
aF0.7742
aF0.4349
aF0.4165
aF0.5818
aF0.3518
asI553
(lp426
F1.2074
aF0.6498
aF0.5314
aF0.324
aF0.7055
aF0.3967
aF0.3504
aF0.3192
asI554
(lp427
F1.2177
aF1.3406
aF0.4616
aF0.3242
aF0.8183
aF0.4086
aF0.5836
aF0.6297
asI555
(lp428
F1.2278
aF0.6675
aF0.4229
aF0.3219
aF0.4423
aF0.4388
aF0.7662
aF0.3451
asI556
(lp429
F1.2353
aF0.6441
aF0.4683
aF0.3221
aF0.4562
aF0.4151
aF0.3668
aF0.7229
asI557
(lp430
F1.244
aF0.6487
aF0.8277
aF0.3255
aF0.4813
aF0.42
aF0.7794
aF0.325
asI558
(lp431
F1.2353
aF1.3334
aF0.4642
aF0.3413
aF0.4899
aF0.6549
aF0.3701
aF0.327
asI559
(lp432
F1.2492
aF0.6983
aF0.4625
aF0.5075
aF0.673
aF0.8981
aF0.7922
aF0.3327
asI560
(lp433
F1.306
aF0.7095
aF0.439
aF0.751
aF0.437
aF0.4373
aF0.7109
aF0.6499
asI561
(lp434
F1.2397
aF0.6941
aF0.4724
aF0.3298
aF0.8556
aF0.3862
aF0.3665
aF0.3445
asI562
(lp435
F1.2853
aF0.6942
aF0.9668
aF0.3501
aF0.8991
aF0.7068
aF0.3825
aF0.6441
asI563
(lp436
F1.2885
aF0.6793
aF0.4585
aF0.7731
aF0.957
aF0.4229
aF0.3695
aF0.3359
asI564
(lp437
F1.2464
aF0.6875
aF0.8322
aF0.6358
aF0.5117
aF0.7297
aF0.3907
aF0.3473
asI565
(lp438
F1.2832
aF0.7077
aF1.0522
aF0.3438
aF0.4516
aF0.9778
aF0.3935
aF0.6484
asI566
(lp439
F1.2943
aF0.6746
aF0.4678
aF0.3476
aF0.4874
aF0.4403
aF0.382
aF0.749
asI567
(lp440
F1.3562
aF0.8777
aF0.4769
aF1.0536
aF0.7692
aF0.4418
aF0.3861
aF0.344
asI568
(lp441
F1.299
aF0.6933
aF0.7338
aF0.8287
aF0.8569
aF0.4494
aF0.3874
aF0.3654
asI569
(lp442
F1.3705
aF0.7004
aF0.4577
aF0.6075
aF0.4753
aF0.4623
aF0.3845
aF0.3673
asI570
(lp443
F1.3338
aF0.6948
aF0.4675
aF0.393
aF0.8668
aF0.3803
aF0.3902
aF0.3626
asI571
(lp444
F1.355
aF0.7163
aF0.483
aF0.37
aF0.4382
aF0.4038
aF0.7376
aF0.671
asI572
(lp445
F1.3578
aF1.5076
aF0.4787
aF0.3908
aF0.4771
aF0.457
aF0.3839
aF0.3855
asI573
(lp446
F1.375
aF1.4685
aF0.4893
aF0.3748
aF0.4725
aF0.8309
aF0.3886
aF0.3739
asI574
(lp447
F1.3519
aF1.5367
aF0.5043
aF0.3832
aF0.4511
aF0.8808
aF0.368
aF0.3625
asI575
(lp448
F1.3651
aF0.7124
aF1.1044
aF0.9515
aF0.7529
aF0.8702
aF0.4164
aF0.4062
asI576
(lp449
F1.3935
aF0.6918
aF0.5001
aF0.4015
aF0.4498
aF0.8099
aF0.3875
aF0.6975
asI577
(lp450
F1.4166
aF1.5258
aF0.4886
aF0.3789
aF0.4636
aF0.4099
aF0.4113
aF0.7617
asI578
(lp451
F1.3812
aF1.5038
aF0.5204
aF0.8754
aF0.516
aF0.4191
aF0.408
aF0.3749
asI579
(lp452
F1.3683
aF0.8184
aF0.5138
aF0.8086
aF0.4465
aF0.4829
aF0.401
aF0.3757
asI580
(lp453
F1.3995
aF0.778
aF0.6987
aF0.5789
aF0.819
aF0.4834
aF0.4165
aF0.3683
asI581
(lp454
F1.3767
aF0.7516
aF1.0366
aF1.2068
aF0.5593
aF0.4564
aF0.4137
aF0.7039
asI582
(lp455
F1.3983
aF0.7498
aF1.0942
aF0.38
aF0.9739
aF0.4786
aF0.4105
aF0.4377
asI583
(lp456
F1.4991
aF0.7854
aF0.5298
aF0.9194
aF0.5117
aF0.503
aF0.44
aF0.4542
asI584
(lp457
F1.4688
aF0.7697
aF0.4981
aF0.5364
aF0.5273
aF0.9809
aF0.4028
aF0.4217
asI585
(lp458
F1.5424
aF1.6274
aF0.5363
aF0.8753
aF0.5674
aF0.4977
aF0.4369
aF0.3802
asI586
(lp459
F1.4482
aF0.8443
aF0.5592
aF0.3894
aF0.6112
aF0.8964
aF0.4365
aF0.3918
asI587
(lp460
F1.4444
aF0.7481
aF0.5215
aF0.9286
aF0.5577
aF0.8074
aF0.4147
aF0.3872
asI588
(lp461
F1.4369
aF1.6984
aF0.5083
aF0.4718
aF0.5316
aF0.5149
aF0.906
aF0.4621
asI589
(lp462
F1.4571
aF1.647
aF0.5237
aF0.9874
aF0.5437
aF0.8374
aF0.4409
aF0.3973
asI590
(lp463
F1.4359
aF0.794
aF1.1078
aF0.4137
aF1.0482
aF0.4932
aF0.4159
aF0.8345
asI591
(lp464
F1.464
aF0.8066
aF1.1386
aF0.5802
aF0.5762
aF0.5177
aF0.5147
aF0.8536
asI592
(lp465
F1.4803
aF0.7625
aF1.1638
aF0.4304
aF0.5898
aF0.5
aF0.8484
aF0.3963
asI593
(lp466
F1.7456
aF0.8499
aF0.5502
aF0.8793
aF0.5124
aF0.5242
aF0.4411
aF0.3891
asI594
(lp467
F1.4826
aF1.6875
aF0.5494
aF0.4127
aF0.5942
aF0.4982
aF0.4486
aF0.3948
asI595
(lp468
F1.4672
aF1.6785
aF0.564
aF0.7421
aF0.5853
aF0.5064
aF0.4392
aF0.3957
asI596
(lp469
F1.7186
aF0.8046
aF0.6418
aF0.7898
aF0.9876
aF0.5107
aF0.4478
aF0.4101
asI597
(lp470
F1.4802
aF0.8136
aF0.573
aF1.3377
aF0.6061
aF0.5059
aF0.7042
aF0.4077
asI598
(lp471
F1.4948
aF0.8135
aF0.555
aF1.2402
aF0.6284
aF0.5377
aF0.5132
aF0.4139
asI599
(lp472
F1.5165
aF0.8256
aF1.2617
aF0.4102
aF0.6087
aF0.5252
aF0.4489
aF0.3975
asI600
(lp473
F1.5601
aF0.8474
aF0.5357
aF1.2552
aF0.5078
aF0.8221
aF0.4501
aF0.4229
asI601
(lp474
F1.5537
aF0.8345
aF1.1982
aF1.0282
aF0.5373
aF0.5366
aF0.4653
aF0.7835
asI602
(lp475
F1.5495
aF1.7548
aF0.5922
aF0.9988
aF0.6234
aF0.518
aF0.4632
aF0.8025
asI603
(lp476
F1.5714
aF1.7506
aF0.5846
aF0.4607
aF0.6377
aF0.5447
aF0.4657
aF0.8965
asI604
(lp477
F1.6037
aF0.8462
aF0.7938
aF0.7856
aF0.9715
aF0.5447
aF0.8941
aF0.4552
asI605
(lp478
F1.643
aF0.8214
aF0.577
aF1.1895
aF0.5929
aF0.8728
aF0.4721
aF0.4256
asI606
(lp479
F1.5675
aF0.866
aF0.5781
aF0.4431
aF0.632
aF0.5507
aF0.462
aF0.7988
asI607
(lp480
F1.6114
aF0.868
aF1.0533
aF0.4382
aF0.5004
aF0.5006
aF0.4682
aF0.4299
asI608
(lp481
F1.5805
aF0.8821
aF0.5852
aF0.8085
aF0.6558
aF0.5372
aF0.7408
aF0.4185
asI609
(lp482
F1.6397
aF0.8883
aF0.5784
aF1.1521
aF1.0885
aF0.5286
aF0.4763
aF0.8614
asI610
(lp483
F1.6198
aF0.8607
aF0.614
aF1.1559
aF0.5894
aF0.5619
aF0.9753
aF0.4431
asI611
(lp484
F1.5967
aF0.8753
aF0.5886
aF1.2081
aF0.5276
aF0.5621
aF0.5129
aF0.8555
asI612
(lp485
F1.6992
aF1.6732
aF0.6103
aF0.9556
aF0.6447
aF0.5672
aF0.4958
aF0.9512
asI613
(lp486
F1.9429
aF0.8741
aF1.324
aF0.4371
aF0.6669
aF1.0631
aF0.8137
aF0.9281
asI614
(lp487
F1.6568
aF1.8511
aF0.6663
aF0.4993
aF1.0487
aF0.5548
aF0.493
aF0.8486
asI615
(lp488
F1.6891
aF1.8438
aF1.2596
aF0.5163
aF1.1363
aF0.5553
aF0.4826
aF0.9396
asI616
(lp489
F1.7736
aF0.8908
aF0.6122
aF0.8258
aF0.6722
aF0.5768
aF0.7586
aF0.4495
asI617
(lp490
F1.6786
aF0.8497
aF1.3519
aF0.4704
aF0.6794
aF0.5644
aF0.4933
aF0.4491
asI618
(lp491
F1.6637
aF1.0722
aF0.6577
aF1.4749
aF0.6605
aF0.5696
aF0.5161
aF0.4524
asI619
(lp492
F1.6513
aF0.9085
aF1.2906
aF0.8465
aF0.6098
aF0.5899
aF0.4956
aF0.4618
asI620
(lp493
F1.7256
aF0.9088
aF0.7314
aF1.0815
aF1.1607
aF0.5767
aF0.506
aF0.4465
asI621
(lp494
F1.6708
aF0.9064
aF1.1664
aF1.1332
aF0.6752
aF1.0943
aF1.1235
aF0.9822
asI622
(lp495
F1.6748
aF0.9694
aF1.3318
aF0.4635
aF0.7
aF0.5818
aF0.8814
aF0.981
asI623
(lp496
F1.8335
aF0.9311
aF0.6472
aF0.4875
aF0.6965
aF0.5945
aF0.5064
aF0.4612
asI624
(lp497
F1.7395
aF0.9544
aF1.4269
aF0.869
aF0.7416
aF0.6098
aF0.5475
aF0.4867
asI625
(lp498
F1.7485
aF0.9347
aF0.6943
aF0.553
aF0.6755
aF0.6134
aF1.1591
aF0.4685
asI626
(lp499
F1.7412
aF0.9088
aF0.6657
aF1.0557
aF0.7097
aF1.3295
aF0.9738
aF0.4744
asI627
(lp500
F1.722
aF0.9361
aF0.6422
aF0.8853
aF0.7285
aF0.5966
aF0.5182
aF0.4774
asI628
(lp501
F1.7287
aF0.9432
aF0.6512
aF0.908
aF1.2036
aF1.3207
aF0.9807
aF0.5031
asI629
(lp502
F1.8189
aF0.9436
aF0.6579
aF0.8849
aF0.7075
aF0.6092
aF1.0088
aF0.4835
asI630
(lp503
F1.7489
aF0.9565
aF0.6551
aF0.4835
aF1.1085
aF0.927
aF0.5223
aF0.9491
asI631
(lp504
F1.858
aF0.9576
aF0.6675
aF0.5094
aF0.7251
aF0.9313
aF1.1593
aF0.4836
asI632
(lp505
F1.7941
aF0.9598
aF0.6427
aF1.239
aF0.7416
aF0.6039
aF0.5332
aF0.4729
asI633
(lp506
F1.8658
aF2.1065
aF0.6792
aF0.5072
aF1.2377
aF0.6318
aF0.5341
aF0.4953
asI634
(lp507
F1.8242
aF0.9687
aF0.6763
aF0.5371
aF1.0534
aF0.6209
aF1.1834
aF0.4892
asI635
(lp508
F2.1582
aF1.1217
aF0.7332
aF1.0321
aF1.1658
aF1.0907
aF0.6363
aF0.9755
asI636
(lp509
F2.1453
aF1.1238
aF1.4937
aF0.6068
aF0.7479
aF0.6998
aF0.6085
aF0.5484
asI637
(lp510
F2.149
aF1.1269
aF0.7625
aF0.6743
aF0.7981
aF0.7321
aF0.6685
aF0.5643
asI638
(lp511
F2.141
aF1.1743
aF0.7669
aF1.0737
aF0.7355
aF0.7651
aF0.6357
aF0.5674
asI639
(lp512
F1.8538
aF1.0131
aF0.6925
aF1.6803
aF0.6069
aF0.6741
aF1.2188
aF0.5202
asI640
(lp513
F1.9197
aF1.0114
aF0.6578
aF1.5689
aF0.7507
aF0.6306
aF1.097
aF0.497
asI641
(lp514
F1.8763
aF1.0328
aF0.6767
aF0.5354
aF0.7676
aF1.0035
aF0.5624
aF1.0065
asI642
(lp515
F1.9203
aF1.0056
aF1.4101
aF0.5276
aF1.2534
aF1.1383
aF0.568
aF1.1352
asI643
(lp516
F1.8983
aF2.1275
aF1.5428
aF1.2286
aF0.6549
aF1.3431
aF0.9386
aF0.5131
asI644
(lp517
F1.884
aF1.0032
aF0.6806
aF0.5084
aF1.3224
aF1.3147
aF1.2216
aF0.5129
asI645
(lp518
F1.8928
aF0.9898
aF0.7054
aF0.5131
aF1.292
aF0.593
aF0.5757
aF0.514
asI646
(lp519
F1.9082
aF1.0713
aF0.7045
aF0.5372
aF1.1193
aF0.5662
aF0.5818
aF0.5242
asI647
(lp520
F1.9754
aF1.0499
aF0.708
aF1.1678
aF0.7203
aF0.6613
aF0.5896
aF0.971
asI648
(lp521
F1.9305
aF1.0434
aF0.6791
aF0.5302
aF0.7622
aF1.1713
aF0.6
aF0.5136
asI649
(lp522
F1.9471
aF1.0451
aF1.5108
aF0.5348
aF0.6893
aF0.6576
aF0.5703
aF0.5252
asI650
(lp523
F1.952
aF1.0494
aF0.7623
aF0.529
aF0.8468
aF0.6611
aF0.5775
aF1.0115
asI651
(lp524
F1.9667
aF1.1119
aF1.5485
aF0.6151
aF0.8019
aF0.668
aF0.6245
aF0.549
asI652
(lp525
F1.9742
aF1.0594
aF1.7223
aF1.3103
aF0.795
aF0.674
aF1.2135
aF1.0208
asI653
(lp526
F2.0215
aF1.0497
aF0.6936
aF0.5849
aF0.6807
aF0.6664
aF0.8979
aF0.5322
asI654
(lp527
F1.9616
aF1.0306
aF0.7225
aF1.6229
aF0.8012
aF1.4636
aF0.6021
aF0.5368
asI655
(lp528
F2.027
aF1.0814
aF0.7291
aF0.5745
aF0.7954
aF0.6886
aF0.5935
aF1.057
asI656
(lp529
F2.0562
aF1.0783
aF1.539
aF0.6251
aF0.8087
aF0.7147
aF0.6086
aF1.1772
asI657
(lp530
F2.0863
aF1.0769
aF1.5268
aF0.5472
aF0.8204
aF0.6824
aF1.3223
aF0.5568
asI658
(lp531
F2.0667
aF2.206
aF0.7427
aF0.829
aF0.6299
aF1.2579
aF1.3499
aF1.0581
asI659
(lp532
F2.0783
aF1.0783
aF1.6005
aF0.6456
aF0.8014
aF0.7084
aF0.6106
aF0.5473
asI660
(lp533
F2.0299
aF2.2079
aF0.7293
aF1.0253
aF0.8319
aF0.6774
aF0.6208
aF0.539
asI661
(lp534
F2.0434
aF2.1574
aF0.7324
aF0.9853
aF1.2616
aF0.6725
aF0.6165
aF0.5522
asI662
(lp535
F2.039
aF2.3058
aF0.7508
aF1.3314
aF0.8242
aF0.7172
aF1.2259
aF1.2001
asI663
(lp536
F2.1009
aF1.1333
aF1.6848
aF0.5858
aF0.8249
aF0.7018
aF1.1799
aF1.0682
asI664
(lp537
F2.1068
aF1.1335
aF0.7935
aF1.5549
aF0.8566
aF0.7038
aF0.6137
aF0.563
asI665
(lp538
F2.129
aF1.1279
aF0.7626
aF0.567
aF0.8317
aF0.7153
aF0.6243
aF0.5566
asI666
(lp539
F2.0969
aF2.4178
aF1.616
aF1.2235
aF0.7286
aF1.3736
aF0.6212
aF1.1389
asI667
(lp540
F2.1626
aF1.1788
aF1.6524
aF1.055
aF0.7574
aF0.7122
aF0.6602
aF0.5667
asI668
(lp541
F2.0998
aF1.1317
aF1.7339
aF1.3702
aF0.7511
aF1.3949
aF0.6379
aF0.5906
asI669
(lp542
F2.1156
aF2.4231
aF0.7815
aF1.0876
aF0.6851
aF0.7379
aF0.6429
aF0.5674
asI670
(lp543
F2.1491
aF1.1348
aF0.7455
aF0.5857
aF1.4429
aF1.385
aF1.117
aF0.5827
asI671
(lp544
F2.1673
aF2.4179
aF0.7784
aF1.1364
aF1.5753
aF0.731
aF0.6328
aF0.5817
asI672
(lp545
F2.2174
aF1.1847
aF0.8139
aF0.6094
aF1.4566
aF0.7292
aF0.6439
aF0.5759
asI673
(lp546
F2.1663
aF2.4774
aF1.6265
aF1.7435
aF0.8612
aF1.267
aF0.6522
aF0.5812
asI674
(lp547
F2.3266
aF1.1871
aF1.673
aF0.5913
aF1.2536
aF1.6248
aF0.6582
aF1.1183
asI675
(lp548
F2.2294
aF1.18
aF1.8425
aF0.6178
aF0.7926
aF0.7951
aF1.2818
aF0.5983
asI676
(lp549
F2.3127
aF1.152
aF0.7984
aF0.6019
aF0.9026
aF1.6035
aF0.659
aF0.7241
asI677
(lp550
F2.9893
aF1.2306
aF1.8386
aF1.1221
aF0.8753
aF0.7532
aF1.4471
aF0.587
asI678
(lp551
F2.2307
aF2.4578
aF0.8111
aF0.6327
aF0.8219
aF0.7699
aF0.6611
aF1.278
asI679
(lp552
F2.254
aF1.1926
aF0.8101
aF1.3027
aF0.7117
aF0.7598
aF0.6619
aF0.5877
asI680
(lp553
F2.2561
aF1.1854
aF0.7931
aF1.441
aF1.5979
aF0.7687
aF0.7255
aF0.6111
asI681
(lp554
F2.2495
aF1.2309
aF0.8512
aF1.1092
aF0.84
aF1.2591
aF1.2808
aF0.6087
asI682
(lp555
F2.2546
aF2.5024
aF0.8302
aF1.1308
aF1.4799
aF1.3386
aF0.6781
aF0.6041
asI683
(lp556
F2.252
aF1.2074
aF0.8216
aF0.6096
aF0.7533
aF0.7908
aF0.6811
aF1.3505
asI684
(lp557
F2.2704
aF1.2087
aF1.2573
aF0.6191
aF0.8625
aF1.4153
aF1.4512
aF0.6142
asI685
(lp558
F2.2833
aF2.6261
aF0.8199
aF0.6588
aF1.4286
aF0.7759
aF0.6823
aF0.6097
asI686
(lp559
F2.2697
aF1.2351
aF1.5389
aF0.6262
aF0.8951
aF0.7992
aF0.6862
aF0.6066
asI687
(lp560
F2.3166
aF1.2396
aF1.9263
aF1.4919
aF0.7677
aF0.7956
aF0.7119
aF0.6321
asI688
(lp561
F2.3406
aF1.3598
aF0.8558
aF0.6655
aF0.9263
aF1.6941
aF1.1243
aF0.6408
asI689
(lp562
F2.3518
aF1.2628
aF0.8576
aF1.3894
aF0.9278
aF0.796
aF0.7126
aF0.6361
asI690
(lp563
F2.4274
aF1.2446
aF1.9036
aF1.184
aF0.7884
aF0.8269
aF0.7059
aF0.6323
asI691
(lp564
F2.3526
aF1.5061
aF0.8574
aF0.6634
aF0.9596
aF0.8018
aF0.7146
aF0.6422
asI692
(lp565
F2.352
aF1.2586
aF0.9062
aF1.5916
aF0.9906
aF0.8294
aF1.3172
aF0.6708
asI693
(lp566
F2.362
aF1.2281
aF0.8446
aF0.9652
aF1.3968
aF0.8359
aF1.5424
aF0.6631
asI694
(lp567
F2.4111
aF1.2672
aF0.9091
aF1.4509
aF0.9627
aF0.8094
aF0.723
aF0.6399
asI695
(lp568
F2.3981
aF1.274
aF1.9987
aF1.2296
aF0.9212
aF0.8174
aF0.7286
aF1.3862
asI696
(lp569
F2.4011
aF1.3052
aF0.8654
aF0.6603
aF1.6764
aF1.6367
aF0.7057
aF1.2275
asI697
(lp570
F2.4929
aF1.3454
aF0.895
aF0.6544
aF1.5992
aF1.4421
aF0.7172
aF0.6469
asI698
(lp571
F2.4489
aF2.8555
aF2.0279
aF0.684
aF0.8162
aF0.8365
aF0.718
aF1.2696
asI699
(lp572
F2.5391
aF1.3532
aF0.9423
aF0.7638
aF0.9407
aF0.8729
aF0.7829
aF1.2417
asI700
(lp573
F2.5621
aF1.3549
aF1.9999
aF0.8723
aF0.9434
aF0.8551
aF0.7682
aF0.7219
asI701
(lp574
F2.5459
aF1.3546
aF0.9152
aF0.7287
aF1.0185
aF0.9173
aF0.7986
aF0.7018
asI702
(lp575
F2.6083
aF1.4204
aF0.952
aF1.5194
aF1.6257
aF0.9073
aF0.7717
aF0.6917
asI703
(lp576
F2.4959
aF1.3171
aF0.9775
aF0.672
aF1.0011
aF0.8627
aF0.7449
aF1.2271
asI704
(lp577
F2.5469
aF1.3178
aF0.967
aF1.2132
aF0.999
aF1.3229
aF1.1854
aF0.6818
asI705
(lp578
F2.5349
aF1.3211
aF1.9749
aF0.6929
aF1.6108
aF0.8748
aF0.7391
aF0.6646
asI706
(lp579
F2.5266
aF1.3372
aF0.8981
aF0.7076
aF1.0213
aF0.8571
aF0.756
aF0.6734
asI707
(lp580
F2.498
aF1.3347
aF0.9539
aF1.7361
aF0.9841
aF0.862
aF0.7556
aF0.6831
asI708
(lp581
F2.5147
aF1.3145
aF0.8973
aF1.6766
aF1.6256
aF0.8752
aF0.7843
aF1.2287
asI709
(lp582
F2.5336
aF1.3895
aF0.9151
aF0.6834
aF0.9439
aF0.8668
aF0.7685
aF0.6977
asI710
(lp583
F2.5167
aF1.3171
aF1.9043
aF0.6864
aF0.8854
aF0.7977
aF0.745
aF1.4613
asI711
(lp584
F2.7437
aF1.3373
aF0.9173
aF0.7096
aF1.025
aF0.8784
aF0.7679
aF0.6936
asI712
(lp585
F2.5684
aF2.9717
aF2.1542
aF2.16
aF1.7114
aF1.3684
aF0.7763
aF0.6848
asI713
(lp586
F2.5895
aF1.4767
aF1.1779
aF0.7375
aF1.0375
aF0.8794
aF0.8169
aF1.3224
asI714
(lp587
F2.6528
aF1.3647
aF0.9527
aF0.7041
aF1.0512
aF1.6799
aF1.5072
aF0.7017
asI715
(lp588
F2.6494
aF1.3633
aF0.9085
aF1.0749
aF0.9988
aF1.8204
aF0.8277
aF0.705
asI716
(lp589
F2.6069
aF2.916
aF0.9855
aF0.7219
aF0.9377
aF1.4192
aF0.778
aF0.6909
asI717
(lp590
F2.6379
aF1.3737
aF0.9456
aF0.7231
aF1.0545
aF0.9119
aF0.7918
aF1.4955
asI718
(lp591
F2.658
aF2.9398
aF0.9618
aF0.7143
aF1.0526
aF0.8963
aF0.7851
aF0.7279
asI719
(lp592
F2.6825
aF1.3941
aF0.9594
aF0.7179
aF0.9056
aF0.8987
aF0.7829
aF0.7174
asI720
(lp593
F2.6634
aF1.4256
aF0.961
aF0.7373
aF1.8062
aF1.7827
aF1.5268
aF0.7351
asI721
(lp594
F2.7218
aF1.4198
aF1.9967
aF1.0821
aF0.9998
aF1.5913
aF0.8117
aF0.7189
asI722
(lp595
F2.6876
aF1.388
aF2.3213
aF0.733
aF2.117
aF0.988
aF0.8441
aF1.4724
asI723
(lp596
F2.756
aF3.0028
aF0.9699
aF1.638
aF0.9083
aF0.8687
aF1.7711
aF0.723
asI724
(lp597
F2.777
aF1.4288
aF0.9916
aF1.7948
aF1.0212
aF0.9275
aF1.5499
aF0.7888
asI725
(lp598
F2.7356
aF1.4314
aF2.1375
aF0.7368
aF1.4321
aF1.7395
aF0.8355
aF0.7313
asI726
(lp599
F2.7252
aF2.8691
aF0.9582
aF0.7787
aF0.9592
aF0.9529
aF1.3678
aF1.351
asI727
(lp600
F2.819
aF1.4501
aF2.225
aF0.7814
aF1.114
aF0.9347
aF0.8206
aF0.7468
asI728
(lp601
F2.8295
aF1.4763
aF2.1357
aF0.77
aF0.943
aF1.456
aF0.8415
aF0.7503
asI729
(lp602
F2.8373
aF1.4921
aF0.9839
aF1.3858
aF1.8961
aF0.9624
aF1.7421
aF0.7621
asI730
(lp603
F2.7993
aF1.479
aF2.1466
aF1.3998
aF1.9145
aF1.6937
aF0.8239
aF0.7586
asI731
(lp604
F2.9107
aF3.2049
aF1.0145
aF1.8478
aF2.0682
aF0.9469
aF1.5417
aF0.7957
asI732
(lp605
F2.8886
aF1.4903
aF2.1654
aF1.2998
aF2.1541
aF2.1149
aF0.8657
aF1.541
asI733
(lp606
F2.8889
aF1.5378
aF1.8685
aF0.783
aF1.0975
aF0.9766
aF0.8901
aF0.7883
asI734
(lp607
F2.9554
aF3.2461
aF2.3433
aF0.769
aF2.0679
aF2.1782
aF0.8398
aF0.7733
asI735
(lp608
F2.8944
aF1.5269
aF1.0563
aF1.697
aF1.961
aF0.9861
aF1.6962
aF0.7722
asI736
(lp609
F2.9979
aF1.5631
aF1.0476
aF1.421
aF1.1498
aF0.9622
aF0.871
aF0.75
asI737
(lp610
F2.9125
aF1.5346
aF1.0278
aF0.7936
aF1.1601
aF0.9749
aF0.8747
aF0.7801
asI738
(lp611
F2.9212
aF3.3307
aF1.0691
aF1.7003
aF1.8528
aF0.9877
aF0.8409
aF1.4622
asI739
(lp612
F2.9769
aF1.5777
aF1.0644
aF0.9071
aF1.1438
aF1.5751
aF1.3426
aF0.7897
asI740
(lp613
F3.0093
aF1.5587
aF1.2675
aF0.8323
aF1.0091
aF0.9296
aF0.8978
aF0.7864
asI741
(lp614
F2.999
aF3.3404
aF1.0584
aF0.8108
aF0.9524
aF1.0181
aF0.8886
aF0.7948
asI742
(lp615
F3.0042
aF3.1183
aF1.9594
aF0.8236
aF2.0736
aF0.9926
aF0.8806
aF0.7924
asI743
(lp616
F3.0803
aF1.6014
aF2.2339
aF0.8231
aF1.0468
aF1.0926
aF0.9342
aF0.815
asI744
(lp617
F3.0369
aF1.6037
aF1.128
aF1.5204
aF1.1195
aF2.2494
aF0.9103
aF1.4419
asI745
(lp618
F3.0563
aF1.6129
aF1.1115
aF1.7558
aF1.213
aF1.857
aF0.9008
aF0.8058
asI746
(lp619
F3.067
aF1.6306
aF1.1126
aF1.502
aF1.03
aF1.0379
aF0.9221
aF0.8276
asI747
(lp620
F3.0848
aF3.4292
aF1.1334
aF0.843
aF1.1683
aF1.0299
aF0.9039
aF0.8015
asI748
(lp621
F3.079
aF1.6252
aF1.1324
aF0.8528
aF1.1783
aF0.9307
aF1.7275
aF0.8075
asI749
(lp622
F3.1426
aF1.5826
aF2.3056
aF1.9757
aF1.2066
aF1.024
aF0.8419
aF0.81
asI750
(lp623
F3.1791
aF3.4197
aF2.5335
aF1.4021
aF1.0503
aF1.0486
aF0.9277
aF0.8305
asI751
(lp624
F3.182
aF1.6712
aF1.1305
aF0.8699
aF1.1904
aF1.8776
aF0.9123
aF1.5737
asI752
(lp625
F3.2321
aF1.695
aF1.1432
aF0.8681
aF2.4566
aF1.0429
aF0.9253
aF0.8364
asI753
(lp626
F3.2027
aF1.7067
aF1.1651
aF2.0602
aF1.7585
aF1.0546
aF0.9055
aF0.8268
asI754
(lp627
F3.2324
aF1.6874
aF3.0566
aF0.9011
aF1.1095
aF1.0816
aF1.9648
aF0.824
asI755
(lp628
F3.2736
aF3.4289
aF1.1588
aF2.3156
aF1.9787
aF1.0725
aF0.9275
aF0.8408
asI756
(lp629
F3.2534
aF1.7274
aF1.1759
aF0.8839
aF1.2598
aF1.0793
aF0.9059
aF0.8474
asI757
(lp630
F3.2297
aF3.3866
aF1.1569
aF1.8654
aF1.0743
aF1.0679
aF0.9538
aF0.8356
asI758
(lp631
F3.2623
aF1.6885
aF1.1768
aF0.8811
aF1.1716
aF1.0971
aF0.973
aF0.8614
asI759
(lp632
F3.3286
aF1.7351
aF1.1737
aF0.9251
aF1.2111
aF1.0732
aF0.9663
aF0.8437
asI760
(lp633
F3.314
aF3.4004
aF1.1935
aF1.5686
aF1.271
aF2.0793
aF1.9455
aF0.8475
asI761
(lp634
F3.3404
aF1.7487
aF1.1946
aF0.9367
aF1.2425
aF1.9104
aF1.5824
aF0.8545
asI762
(lp635
F3.3848
aF3.6791
aF1.2635
aF1.5813
aF1.1166
aF1.0849
aF1.5258
aF0.8697
asI763
(lp636
F3.9207
aF2.0423
aF1.6962
aF2.1173
aF1.5407
aF1.8912
aF1.6991
aF0.98
asI764
(lp637
F3.9424
aF2.1024
aF1.4088
aF1.0955
aF1.5096
aF1.2748
aF1.8801
aF1.6675
asI765
(lp638
F4.0036
aF2.0673
aF1.4278
aF1.0887
aF1.383
aF1.2791
aF1.8254
aF1.0523
asI766
(lp639
F4.0269
aF2.1732
aF2.8877
aF1.1078
aF1.9928
aF1.2536
aF1.1294
aF1.0975
asI767
(lp640
F3.455
aF1.8003
aF2.5725
aF2.1927
aF1.1371
aF1.1407
aF0.9952
aF0.8831
asI768
(lp641
F3.5224
aF1.8434
aF2.7535
aF0.9774
aF1.2844
aF1.11
aF0.973
aF0.8866
asI769
(lp642
F3.7202
aF1.9191
aF1.2468
aF2.2067
aF2.1006
aF1.8022
aF1.68
aF0.9294
asI770
(lp643
F3.6206
aF3.5791
aF2.8362
aF2.6762
aF1.3044
aF1.1288
aF0.9904
aF1.6227
asI771
(lp644
F3.5287
aF1.8044
aF1.3486
aF2.2837
aF2.0227
aF1.1414
aF0.9795
aF0.9092
asI772
(lp645
F3.5499
aF3.7595
aF1.271
aF0.9524
aF1.2337
aF0.9989
aF0.9783
aF0.9021
asI773
(lp646
F3.5522
aF1.8346
aF1.238
aF1.6792
aF1.3429
aF1.1737
aF1.0132
aF0.9083
asI774
(lp647
F3.6224
aF1.8628
aF2.8474
aF1.1734
aF1.1222
aF1.1704
aF1.0535
aF0.9282
asI775
(lp648
F3.6491
aF1.8949
aF1.3114
aF1.6839
aF1.5274
aF1.2129
aF1.0561
aF1.932
asI776
(lp649
F3.7815
aF1.9004
aF1.2967
aF2.155
aF1.4307
aF2.3377
aF2.1242
aF0.9188
asI777
(lp650
F3.6544
aF1.9868
aF1.2924
aF0.9935
aF1.2627
aF1.1588
aF1.0294
aF0.9156
asI778
(lp651
F3.6625
aF1.948
aF1.3093
aF1.0075
aF1.3664
aF1.1809
aF1.0204
aF0.9228
asI779
(lp652
F3.6901
aF1.8989
aF1.3042
aF2.2815
aF1.3797
aF1.1648
aF1.0539
aF0.9276
asI780
(lp653
F3.7088
aF1.9877
aF1.3835
aF1.2407
aF1.4049
aF1.153
aF1.0466
aF0.9216
asI781
(lp654
F3.703
aF1.9194
aF1.2869
aF1.3027
aF1.2085
aF1.0728
aF1.9768
aF0.9272
asI782
(lp655
F3.7066
aF2.0039
aF1.3086
aF2.1004
aF1.2401
aF1.226
aF2.0159
aF0.9037
asI783
(lp656
F3.7593
aF1.9602
aF1.3591
aF1.7313
aF1.4397
aF1.2393
aF1.0395
aF0.9414
asI784
(lp657
F3.759
aF3.9305
aF1.3378
aF1.7197
aF1.2499
aF1.2005
aF1.0576
aF0.937
asI785
(lp658
F3.8031
aF1.9739
aF1.3315
aF1.0456
aF1.3864
aF1.2239
aF1.0331
aF0.9488
asI786
(lp659
F3.8068
aF2.0106
aF1.3519
aF1.033
aF1.4243
aF2.2382
aF1.0499
aF0.9318
asI787
(lp660
F3.8415
aF2.4488
aF2.6998
aF1.7394
aF1.2278
aF1.2008
aF1.1083
aF0.9598
asI788
(lp661
F3.9813
aF2.0042
aF1.3688
aF2.381
aF2.5017
aF1.1924
aF1.0433
aF0.9213
asI789
(lp662
F3.8209
aF1.9927
aF1.3761
aF1.0439
aF1.4182
aF2.391
aF1.076
aF1.9447
asI790
(lp663
F3.8849
aF3.9375
aF1.3895
aF2.8357
aF2.2097
aF1.2221
aF1.7989
aF0.9555
asI791
(lp664
F4.0271
aF2.0319
aF1.4704
aF1.399
aF2.2743
aF1.2357
aF1.6982
aF0.9861
asI792
(lp665
F3.9686
aF2.1079
aF2.9222
aF2.261
aF2.3658
aF2.139
aF1.9842
aF0.9737
asI793
(lp666
F4.0031
aF2.0823
aF1.3308
aF1.0864
aF2.3004
aF2.591
aF2.1887
aF0.9712
asI794
(lp667
F3.4119
aF2.0744
aF1.4307
aF1.091
aF1.2719
aF1.2712
aF2.3126
aF0.9996
asI795
(lp668
F4.003
aF2.2249
aF1.6504
aF2.2514
aF2.1677
aF1.2552
aF1.133
aF0.9934
asI796
(lp669
F3.9906
aF2.0213
aF1.4158
aF2.3088
aF1.4747
aF1.9688
aF1.0868
aF1.0324
asI797
(lp670
F3.9898
aF4.1016
aF2.6089
aF2.2234
aF1.6216
aF1.2886
aF1.1587
aF1.8399
asI798
(lp671
F3.9891
aF2.0907
aF1.4457
aF1.0901
aF1.3683
aF2.5074
aF1.1563
aF1.8296
asI799
(lp672
F4.0541
aF2.1042
aF3.1155
aF1.1179
aF2.4715
aF1.3024
aF1.1015
aF1.8194
asI800
(lp673
F4.143
aF4.1825
aF1.454
aF1.1107
aF1.4856
aF1.2699
aF1.1227
aF1.0385
asI801
(lp674
F4.1312
aF2.1628
aF1.5228
aF1.3369
aF1.514
aF1.2654
aF1.1026
aF0.9694
asI802
(lp675
F4.1318
aF2.1727
aF1.4443
aF1.1757
aF1.5371
aF1.2773
aF1.1059
aF1.8834
asI803
(lp676
F4.2291
aF2.1965
aF1.4786
aF1.1141
aF1.5273
aF2.3854
aF1.1421
aF1.0146
asI804
(lp677
F4.1591
aF2.1488
aF1.4832
aF1.1438
aF1.5148
aF1.969
aF1.1479
aF1.0176
asI805
(lp678
F4.1931
aF4.559
aF3.2426
aF2.3164
aF1.5157
aF1.3057
aF1.153
aF2.1036
asI806
(lp679
F4.2823
aF4.2585
aF1.4972
aF1.1615
aF1.5452
aF1.2993
aF2.4305
aF1.0192
asI807
(lp680
F4.2951
aF2.1597
aF1.502
aF1.9621
aF1.5634
aF1.3316
aF1.1321
aF1.0184
asI808
(lp681
F4.2321
aF2.2057
aF1.5156
aF2.4037
aF1.3855
aF2.0153
aF2.17
aF1.0405
asI809
(lp682
F4.3065
aF2.2234
aF3.0004
aF2.4758
aF1.5437
aF1.3133
aF1.1474
aF1.9666
asI810
(lp683
F4.3076
aF2.215
aF1.5912
aF1.1748
aF1.3718
aF1.2235
aF1.1676
aF1.0346
asI811
(lp684
F4.2831
aF2.2022
aF1.5142
aF1.9048
aF2.6657
aF1.3268
aF1.1802
aF1.015
asI812
(lp685
F4.357
aF2.2268
aF1.5225
aF1.953
aF1.5903
aF2.8554
aF1.1399
aF1.9473
asI813
(lp686
F4.3492
aF2.2659
aF1.5124
aF1.964
aF1.2489
aF1.3809
aF2.4219
aF1.0407
asI814
(lp687
F4.3168
aF4.3635
aF1.5372
aF1.1918
aF1.579
aF1.3839
aF1.1665
aF1.0459
asI815
(lp688
F4.3361
aF4.5506
aF3.1806
aF1.1802
aF2.8799
aF2.2958
aF1.1918
aF1.9489
asI816
(lp689
F4.4073
aF2.2848
aF1.5926
aF1.2735
aF1.4072
aF2.4462
aF1.2385
aF1.0678
asI817
(lp690
F4.416
aF2.2883
aF1.8007
aF2.5245
aF2.1462
aF1.3035
aF1.2237
aF1.1937
asI818
(lp691
F4.4528
aF4.501
aF1.5752
aF2.7122
aF1.4895
aF1.3904
aF1.1738
aF1.1115
asI819
(lp692
F4.3892
aF2.2824
aF3.3993
aF1.1925
aF2.3061
aF2.7512
aF1.2206
aF2.0282
asI820
(lp693
F4.492
aF4.4975
aF1.8085
aF1.2065
aF1.624
aF1.3771
aF2.4725
aF1.0964
asI821
(lp694
F4.493
aF2.3237
aF1.5634
aF1.2025
aF1.6472
aF1.3825
aF2.4699
aF2.0079
asI822
(lp695
F4.4982
aF3.0111
aF1.6127
aF1.4543
aF1.6917
aF1.2445
aF1.2433
aF1.0922
asI823
(lp696
F4.4856
aF4.8938
aF1.5976
aF1.2148
aF1.4575
aF1.3959
aF1.2214
aF1.0957
asI824
(lp697
F4.488
aF4.5422
aF1.5987
aF1.378
aF2.6118
aF1.3766
aF1.2286
aF1.0773
asI825
(lp698
F4.5042
aF4.9779
aF1.6134
aF2.0298
aF2.5256
aF1.2463
aF1.2361
aF1.1031
asI826
(lp699
F4.5316
aF2.3528
aF1.6045
aF1.6394
aF1.6456
aF1.2373
aF2.1192
aF1.0922
asI827
(lp700
F4.9191
aF2.5421
aF1.746
aF3.0864
aF1.5707
aF1.4904
aF1.2973
aF1.198
asI828
(lp701
F4.917
aF4.9698
aF1.7484
aF1.9595
aF2.2708
aF1.511
aF1.2961
aF1.1683
asI829
(lp702
F5.6524
aF2.5409
aF1.7412
aF1.3399
aF2.6975
aF2.3311
aF1.2933
aF1.1809
asI830
(lp703
F5.2094
aF2.5375
aF1.7331
aF1.3441
aF1.5287
aF2.4499
aF1.3171
aF2.0822
asI831
(lp704
F4.695
aF2.4029
aF1.6534
aF2.0759
aF1.614
aF2.4201
aF1.2482
aF2.095
asI832
(lp705
F4.6376
aF2.6577
aF3.344
aF2.6187
aF2.5049
aF1.4168
aF2.6137
aF1.9974
asI833
(lp706
F4.6603
aF4.6707
aF3.299
aF1.2663
aF1.5184
aF1.4342
aF1.2939
aF2.0856
asI834
(lp707
F4.7241
aF2.462
aF3.409
aF2.5645
aF1.6975
aF2.6373
aF1.2426
aF1.1083
asI835
(lp708
F5.4639
aF2.4333
aF1.6727
aF2.9163
aF1.7251
aF2.2465
aF1.2983
aF1.1184
asI836
(lp709
F4.7299
aF2.4773
aF3.6463
aF1.298
aF1.8988
aF2.4384
aF1.2846
aF1.1709
asI837
(lp710
F4.735
aF2.4564
aF3.5797
aF1.5573
aF1.8112
aF1.5101
aF2.4222
aF1.179
asI838
(lp711
F4.6999
aF4.8583
aF1.6905
aF2.2085
aF1.7872
aF1.4633
aF1.3418
aF1.1583
asI839
(lp712
F4.7432
aF4.7957
aF1.7018
aF2.6166
aF3.1715
aF1.4684
aF1.2678
aF2.1821
asI840
(lp713
F4.8232
aF2.4902
aF1.7654
aF1.3331
aF1.755
aF2.689
aF2.7394
aF1.1701
asI841
(lp714
F4.8058
aF2.4976
aF1.7587
aF2.1567
aF3.0955
aF1.5095
aF1.3136
aF1.1512
asI842
(lp715
F5.1969
aF4.9698
aF1.7382
aF1.4594
aF1.7344
aF1.4932
aF1.3144
aF1.1724
asI843
(lp716
F4.7921
aF2.499
aF1.7188
aF1.3245
aF1.7636
aF1.4908
aF1.2917
aF1.2034
asI844
(lp717
F4.9048
aF2.575
aF1.7214
aF1.3061
aF1.6719
aF1.476
aF2.4605
aF2.161
asI845
(lp718
F4.8563
aF2.5194
aF1.7231
aF2.7555
aF1.5461
aF2.791
aF1.3061
aF1.1811
asI846
(lp719
F4.8703
aF2.557
aF1.7494
aF2.202
aF1.7776
aF1.5027
aF1.3483
aF2.2894
asI847
(lp720
F4.9198
aF2.5493
aF1.7645
aF3.0521
aF1.7961
aF1.5064
aF2.2121
aF1.2091
asI848
(lp721
F4.9459
aF2.5674
aF1.7632
aF2.2358
aF1.7964
aF1.5676
aF1.2996
aF1.2084
asI849
(lp722
F5.0047
aF2.581
aF1.7573
aF3.0309
aF1.7982
aF1.5446
aF2.3206
aF2.139
asI850
(lp723
F5.0448
aF2.6814
aF1.7797
aF2.2339
aF1.8282
aF2.3564
aF1.3264
aF1.1829
asI851
(lp724
F5.2091
aF2.6441
aF1.7693
aF1.3431
aF3.1362
aF1.5601
aF1.413
aF1.2313
asI852
(lp725
F5.0862
aF2.6168
aF1.8015
aF1.5079
aF1.5958
aF1.552
aF1.3887
aF1.192
asI853
(lp726
F5.0283
aF2.6405
aF3.5075
aF1.7075
aF1.4779
aF1.5609
aF1.3891
aF1.2393
asI854
(lp727
F5.0489
aF5.3565
aF1.7943
aF1.3713
aF3.1966
aF2.759
aF1.3769
aF1.2316
asI855
(lp728
F5.1215
aF2.6291
aF1.7954
aF2.2962
aF1.8035
aF3.284
aF2.9432
aF1.2181
asI856
(lp729
F5.4559
aF2.9766
aF3.9644
aF2.7814
aF1.7385
aF2.5786
aF1.3654
aF2.3538
asI857
(lp730
F5.1323
aF2.6427
aF1.8372
aF1.3815
aF3.0315
aF3.0559
aF1.4044
aF1.2631
asI858
(lp731
F5.0999
aF2.6486
aF1.8202
aF1.3966
aF1.8834
aF2.9863
aF1.3643
aF1.2387
asI859
(lp732
F5.1331
aF2.6372
aF1.8028
aF3.1819
aF1.9583
aF1.6289
aF1.3498
aF1.2924
asI860
(lp733
F5.1675
aF2.7388
aF1.8547
aF2.3334
aF1.8697
aF1.5246
aF2.6578
aF1.2598
asI861
(lp734
F5.1996
aF5.4719
aF1.7945
aF3.1323
aF1.8727
aF2.6714
aF1.4934
aF1.2853
asI862
(lp735
F5.3497
aF2.7032
aF1.8971
aF1.4124
aF3.3696
aF3.3868
aF1.3933
aF1.223
asI863
(lp736
F5.1839
aF2.7359
aF2.6687
aF1.8891
aF1.9405
aF1.5808
aF1.3894
aF1.2693
asI864
(lp737
F5.2345
aF2.7662
aF4.0647
aF1.4256
aF1.897
aF1.6373
aF1.4336
aF1.2842
asI865
(lp738
F6.2054
aF2.7319
aF4.3319
aF1.4322
aF1.9151
aF1.6853
aF1.4674
aF2.4103
asI866
(lp739
F5.3375
aF2.7119
aF1.8749
aF2.9636
aF1.9871
aF3.0253
aF2.4173
aF1.3585
asI867
(lp740
F5.3702
aF2.7969
aF1.8735
aF1.4261
aF3.3386
aF3.2704
aF2.8216
aF1.2745
asI868
(lp741
F5.2742
aF2.7228
aF3.7559
aF3.3487
aF1.8186
aF1.6399
aF2.2496
aF1.2921
asI869
(lp742
F5.3137
aF5.2844
aF1.977
aF4.0908
aF3.022
aF2.7396
aF1.455
aF2.7073
asI870
(lp743
F5.3293
aF2.7621
aF3.7875
aF2.572
aF1.6581
aF3.1055
aF2.4517
aF1.3013
asI871
(lp744
F5.4474
aF2.8031
aF1.907
aF2.4556
aF1.9498
aF1.6628
aF1.4151
aF1.2968
asI872
(lp745
F5.4087
aF5.3441
aF1.9173
aF1.4523
aF1.6896
aF1.698
aF1.4827
aF2.652
asI873
(lp746
F5.4261
aF5.7233
aF1.9583
aF3.2079
aF1.9576
aF1.7637
aF1.4383
aF1.3589
asI874
(lp747
F5.5497
aF2.8964
aF2.0556
aF1.4667
aF3.0863
aF1.6539
aF1.5031
aF1.3227
asI875
(lp748
F5.44
aF5.6709
aF5.0043
aF3.97
aF1.9799
aF1.5887
aF2.6051
aF1.3422
asI876
(lp749
F5.3997
aF2.8123
aF3.8576
aF2.421
aF2.002
aF1.7239
aF1.464
aF1.3288
asI877
(lp750
F5.4737
aF5.4478
aF4.1619
aF1.5207
aF3.6207
aF3.6331
aF1.489
aF1.347
asI878
(lp751
F5.609
aF2.8173
aF2.3712
aF2.2442
aF3.0844
aF1.7235
aF1.4871
aF2.4398
asI879
(lp752
F5.5649
aF2.8707
aF1.9566
aF3.1313
aF1.9095
aF3.346
aF1.4953
aF1.3498
asI880
(lp753
F5.5573
aF5.5724
aF2.0393
aF3.4519
aF1.801
aF1.6984
aF1.5789
aF1.334
asI881
(lp754
F5.5627
aF5.838
aF1.9717
aF1.8521
aF1.9759
aF1.5593
aF1.5212
aF1.3814
asI882
(lp755
F5.6117
aF5.7967
aF4.141
aF3.6901
aF1.7358
aF1.6111
aF1.5419
aF1.3149
asI883
(lp756
F5.5794
aF5.807
aF1.9947
aF1.5176
aF1.7846
aF1.7717
aF1.5581
aF1.3797
asI884
(lp757
F5.602
aF2.9372
aF1.9791
aF2.6861
aF1.8416
aF3.5989
aF3.0681
aF2.8824
asI885
(lp758
F5.7569
aF4.007
aF2.0163
aF3.1647
aF2.0683
aF1.7516
aF1.5605
aF1.3965
asI886
(lp759
F5.6248
aF5.574
aF4.0945
aF1.7196
aF2.6824
aF1.7673
aF1.4986
aF2.8612
asI887
(lp760
F5.7989
aF3.1972
aF2.003
aF1.5485
aF2.179
aF1.7342
aF1.5161
aF2.7453
asI888
(lp761
F5.823
aF2.9609
aF2.0864
aF1.5959
aF2.0429
aF1.6632
aF2.8475
aF1.3933
asI889
(lp762
F5.9317
aF2.9852
aF2.0085
aF2.5934
aF1.9449
aF1.7528
aF3.1655
aF1.4843
asI890
(lp763
F5.7507
aF3.1938
aF2.0411
aF1.9146
aF2.1492
aF1.8991
aF1.5295
aF1.4165
asI891
(lp764
F6.5894
aF3.4171
aF2.3324
aF1.7887
aF2.3808
aF2.0437
aF1.7635
aF2.5859
asI892
(lp765
F6.7232
aF3.414
aF4.3813
aF3.5611
aF3.4851
aF2.057
aF1.8058
aF2.5856
asI893
(lp766
F6.5562
aF6.3498
aF4.7836
aF1.7994
aF2.0707
aF1.7517
aF1.8571
aF2.6211
asI894
(lp767
F6.8974
aF3.4732
aF2.488
aF1.957
aF2.1645
aF2.1065
aF1.8231
aF2.7693
asI895
(lp768
F5.8706
aF3.0756
aF4.2136
aF3.9733
aF1.8533
aF3.4758
aF1.584
aF1.4599
asI896
(lp769
F6.1619
aF6.2217
aF2.1944
aF1.7927
aF1.9221
aF1.7642
aF2.5587
aF2.9333
asI897
(lp770
F5.9107
aF3.0577
aF2.0989
aF3.6328
aF2.1053
aF1.8526
aF2.859
aF1.4177
asI898
(lp771
F6.0303
aF3.0521
aF4.2631
aF1.6419
aF3.2645
aF1.6307
aF1.6072
aF1.4375
asI899
(lp772
F5.8975
aF3.0495
aF4.6222
aF1.6049
aF2.1702
aF3.1159
aF1.5568
aF1.459
asI900
(lp773
F5.9565
aF3.0521
aF2.1363
aF1.617
aF2.2138
aF1.755
aF1.5977
aF2.658
asI901
(lp774
F5.9309
aF5.9429
aF4.0707
aF1.6218
aF2.0
aF1.6177
aF1.5877
aF2.8884
asI902
(lp775
F5.9835
aF3.0894
aF4.8267
aF1.78
aF2.1983
aF1.841
aF1.6421
aF1.4562
asI903
(lp776
F6.0764
aF6.0681
aF2.1786
aF1.6282
aF2.0783
aF2.8741
aF1.6135
aF1.4681
asI904
(lp777
F6.1205
aF3.1237
aF4.5416
aF2.2983
aF2.088
aF1.8646
aF1.5686
aF2.6966
asI905
(lp778
F6.1316
aF3.146
aF2.1488
aF1.6389
aF2.0675
aF1.8454
aF1.6428
aF2.9584
asI906
(lp779
F6.086
aF3.1321
aF3.5731
aF1.8531
aF3.8899
aF1.8761
aF1.6229
aF1.481
asI907
(lp780
F5.721
aF3.1294
aF2.5171
aF3.6694
aF3.9524
aF1.7506
aF1.6365
aF3.0387
asI908
(lp781
F6.0613
aF3.1213
aF2.1422
aF3.9537
aF2.1867
aF3.5452
aF1.6796
aF2.9906
asI909
(lp782
F6.1133
aF3.1516
aF4.5852
aF1.8399
aF2.2163
aF1.8193
aF3.0162
aF1.4776
asI910
(lp783
F6.1091
aF3.2963
aF4.6794
aF3.4419
aF2.0207
aF1.8713
aF3.2057
aF1.5147
asI911
(lp784
F6.1765
aF3.1765
aF3.3172
aF2.7915
aF2.2918
aF3.338
aF1.6733
aF2.623
asI912
(lp785
F6.2671
aF3.2295
aF2.2214
aF1.7337
aF3.4227
aF1.7993
aF1.6633
aF3.0514
asI913
(lp786
F6.7204
aF3.4564
aF2.364
aF1.976
aF1.9799
aF1.9179
aF1.6717
aF2.8003
asI914
(lp787
F6.4835
aF6.5418
aF2.2199
aF1.8393
aF2.0614
aF1.961
aF1.6886
aF1.5349
asI915
(lp788
F6.4357
aF3.4165
aF2.2146
aF1.9637
aF3.4645
aF3.3282
aF1.6805
aF1.5092
asI916
(lp789
F6.2142
aF3.4042
aF2.2081
aF1.9446
aF2.1631
aF1.9632
aF1.6636
aF1.5273
asI917
(lp790
F6.2557
aF3.2172
aF2.22
aF1.6918
aF3.6812
aF3.9453
aF1.7553
aF1.5671
asI918
(lp791
F6.2533
aF3.3204
aF2.2236
aF2.865
aF2.109
aF1.9348
aF1.676
aF1.5472
asI919
(lp792
F6.3955
aF3.2631
aF2.224
aF2.823
aF2.0148
aF2.0206
aF1.7832
aF3.0595
asI920
(lp793
F6.3718
aF6.5501
aF2.473
aF3.8824
aF3.0518
aF2.0375
aF1.8561
aF1.6152
asI921
(lp794
F6.3925
aF6.5741
aF2.2412
aF1.7704
aF1.7905
aF1.8881
aF1.7072
aF1.5093
asI922
(lp795
F6.368
aF3.3611
aF2.2624
aF2.8577
aF2.333
aF1.9674
aF3.2795
aF1.5554
asI923
(lp796
F6.4621
aF6.4221
aF2.287
aF1.7362
aF2.3554
aF1.9056
aF1.8022
aF1.6233
asI924
(lp797
F6.6093
aF3.3529
aF4.979
aF4.7303
aF3.1099
aF1.8667
aF1.7762
aF1.6202
asI925
(lp798
F6.4507
aF6.8706
aF2.2708
aF2.0711
aF2.0868
aF3.1069
aF1.729
aF1.6567
asI926
(lp799
F6.4912
aF6.8103
aF3.2713
aF3.6823
aF4.1855
aF3.1741
aF1.7445
aF3.1376
asI927
(lp800
F6.5603
aF3.4263
aF2.3025
aF2.223
aF4.0765
aF3.4987
aF3.659
aF1.5882
asI928
(lp801
F6.5676
aF3.3702
aF2.3062
aF2.4551
aF2.1096
aF2.0017
aF1.7461
aF1.6173
asI929
(lp802
F6.5797
aF3.3823
aF4.5704
aF1.775
aF2.0528
aF1.9148
aF3.344
aF1.6327
asI930
(lp803
F6.6002
aF6.9363
aF2.3739
aF1.8078
aF2.0646
aF2.0655
aF1.7587
aF1.6518
asI931
(lp804
F6.7836
aF3.396
aF2.3229
aF3.0499
aF3.7274
aF4.0143
aF1.7913
aF3.2346
asI932
(lp805
F6.6973
aF3.4584
aF2.3353
aF1.7878
aF2.0404
aF2.1311
aF1.7708
aF1.6268
asI933
(lp806
F6.5873
aF3.4189
aF6.1805
aF1.8324
aF2.514
aF2.0278
aF1.8
aF1.5698
asI934
(lp807
F6.5853
aF3.4167
aF2.3424
aF4.0018
aF1.9112
aF1.9539
aF3.1082
aF2.8813
asI935
(lp808
F6.7696
aF3.4641
aF2.3639
aF2.8055
aF2.1863
aF2.0758
aF3.1558
aF1.657
asI936
(lp809
F6.6887
aF7.0057
aF2.3861
aF1.8142
aF3.4466
aF1.9074
aF1.774
aF1.64
asI937
(lp810
F6.9821
aF3.5082
aF2.3945
aF1.828
aF1.9668
aF2.1266
aF3.2762
aF1.6616
asI938
(lp811
F6.7625
aF3.4886
aF2.6052
aF2.0649
aF4.6206
aF2.1811
aF3.5573
aF1.6523
asI939
(lp812
F6.7095
aF3.4568
aF4.7068
aF4.1219
aF2.4537
aF2.0895
aF1.8371
aF1.6438
asI940
(lp813
F6.833
aF3.5649
aF2.3848
aF1.8449
aF2.3523
aF4.0415
aF1.8836
aF1.6692
asI941
(lp814
F6.7819
aF3.5161
aF2.3699
aF2.6717
aF3.7497
aF4.3894
aF1.8801
aF1.6495
asI942
(lp815
F6.9431
aF3.4883
aF2.4177
aF1.8422
aF2.0855
aF2.0925
aF1.8101
aF3.412
asI943
(lp816
F6.9284
aF6.8151
aF2.4241
aF2.4801
aF2.5256
aF2.1201
aF1.8263
aF1.6745
asI944
(lp817
F6.9376
aF3.5941
aF2.4261
aF4.2917
aF2.4896
aF2.1137
aF1.8309
aF1.6359
asI945
(lp818
F6.9466
aF3.6311
aF2.4501
aF3.7519
aF2.5074
aF1.955
aF1.9224
aF1.687
asI946
(lp819
F7.002
aF3.619
aF2.4537
aF5.1346
aF2.5305
aF2.1885
aF3.7809
aF1.7354
asI947
(lp820
F6.9083
aF3.5824
aF5.2988
aF4.3355
aF2.1883
aF2.1447
aF3.4515
aF1.6668
asI948
(lp821
F7.2203
aF3.6616
aF2.6462
aF3.172
aF2.5556
aF2.1312
aF1.9234
aF1.6707
asI949
(lp822
F6.9767
aF3.739
aF2.452
aF1.8892
aF2.2501
aF2.1519
aF3.6072
aF1.7175
asI950
(lp823
F7.0858
aF3.635
aF2.6185
aF3.1701
aF2.183
aF2.1923
aF1.8626
aF1.7158
asI951
(lp824
F7.0727
aF3.6483
aF2.5734
aF3.1369
aF3.9126
aF2.2354
aF1.9171
aF3.1379
asI952
(lp825
F7.2266
aF7.5459
aF2.5174
aF4.3978
aF2.199
aF2.1885
aF1.9703
aF1.7384
asI953
(lp826
F7.3443
aF7.5138
aF2.7588
aF4.3494
aF2.3533
aF3.6729
aF1.9547
aF3.1699
asI954
(lp827
F7.1709
aF3.6691
aF2.5829
aF3.1863
aF2.4145
aF2.0512
aF1.9323
aF1.7213
asI955
(lp828
F7.8306
aF4.1185
aF2.7872
aF2.1346
aF2.6657
aF2.288
aF3.7918
aF3.3535
asI956
(lp829
F7.7725
aF7.8692
aF2.7596
aF2.9805
aF2.4065
aF2.1226
aF2.1658
aF1.8856
asI957
(lp830
F7.9083
aF4.0845
aF5.3513
aF2.1371
aF2.6761
aF4.1743
aF2.1142
aF1.8821
asI958
(lp831
F8.0378
aF4.0349
aF2.7795
aF4.2264
aF2.4675
aF2.4589
aF2.118
aF1.9234
asI959
(lp832
F7.2894
aF3.7773
aF5.4937
aF5.4506
aF2.4124
aF2.2209
aF3.2734
aF1.7686
asI960
(lp833
F7.2952
aF3.8279
aF2.5632
aF4.4039
aF2.4134
aF2.2288
aF1.9397
aF1.7794
asI961
(lp834
F7.3258
aF7.6358
aF5.0003
aF2.517
aF2.6235
aF2.2969
aF3.3942
aF1.803
asI962
(lp835
F7.3095
aF3.7697
aF2.58
aF3.9389
aF4.3191
aF4.3328
aF1.9523
aF1.7991
asI963
(lp836
F7.4096
aF3.8217
aF2.6119
aF1.9864
aF2.6925
aF2.6318
aF2.1367
aF1.8544
asI964
(lp837
F7.4605
aF7.9602
aF2.5934
aF3.0467
aF2.6739
aF2.3623
aF1.9644
aF1.8015
asI965
(lp838
F7.427
aF7.6183
aF2.584
aF2.4006
aF2.5812
aF2.1979
aF3.6074
aF1.7923
asI966
(lp839
F7.4683
aF3.787
aF2.6029
aF5.0244
aF3.5551
aF2.0625
aF1.987
aF1.8108
asI967
(lp840
F7.4375
aF3.8746
aF2.6247
aF4.557
aF4.2123
aF2.2238
aF1.9777
aF1.8585
asI968
(lp841
F7.4521
aF3.8657
aF5.1542
aF2.0244
aF2.3364
aF3.9296
aF3.5186
aF1.8234
asI969
(lp842
F7.4988
aF3.9513
aF2.8577
aF2.3146
aF4.0772
aF3.8543
aF3.6687
aF1.8406
asI970
(lp843
F7.5735
aF3.8775
aF2.6556
aF2.0991
aF2.8138
aF3.7357
aF2.0601
aF1.8139
asI971
(lp844
F7.5021
aF3.9183
aF2.6865
aF4.9421
aF3.8759
aF2.3187
aF3.7452
aF1.8719
asI972
(lp845
F7.4807
aF7.9142
aF2.7816
aF2.0259
aF4.4053
aF2.484
aF2.1383
aF1.8454
asI973
(lp846
F7.6556
aF3.8559
aF2.728
aF2.0732
aF4.364
aF3.8515
aF2.1085
aF1.8562
asI974
(lp847
F7.5617
aF3.8672
aF2.6991
aF2.0384
aF2.3734
aF2.3253
aF2.1418
aF1.8343
asI975
(lp848
F7.6369
aF4.0109
aF2.7392
aF2.4994
aF4.8307
aF2.342
aF2.0748
aF3.2959
asI976
(lp849
F7.6628
aF7.9589
aF2.7078
aF2.2707
aF5.0614
aF2.3623
aF2.115
aF2.0292
asI977
(lp850
F7.7879
aF7.8353
aF2.6955
aF5.2383
aF2.7803
aF2.3821
aF2.1015
aF1.8639
asI978
(lp851
F7.7832
aF3.9755
aF2.7047
aF2.0864
aF4.3152
aF4.0058
aF2.1516
aF1.8194
asI979
(lp852
F7.7108
aF7.9932
aF6.4621
aF2.1208
aF2.7968
aF2.4067
aF2.184
aF1.9397
asI980
(lp853
F7.7042
aF7.9232
aF2.9332
aF2.1185
aF4.4074
aF2.4757
aF2.2403
aF2.0227
asI981
(lp854
F7.8745
aF4.1597
aF5.8289
aF4.3262
aF4.5605
aF2.5503
aF2.2104
aF2.0017
asI982
(lp855
F7.7845
aF4.0594
aF3.2652
aF2.1461
aF2.4461
aF2.4393
aF3.892
aF1.9163
asI983
(lp856
F7.8192
aF4.0692
aF4.6422
aF2.1672
aF2.6608
aF4.2845
aF3.4318
aF1.9269
asI984
(lp857
F7.987
aF8.0949
aF2.7676
aF3.5441
aF2.8693
aF4.3577
aF2.0737
aF1.9286
asI985
(lp858
F7.8809
aF4.0894
aF2.7833
aF5.8213
aF2.7202
aF4.9462
aF2.0852
aF1.8922
asI986
(lp859
F7.916
aF4.1439
aF5.9062
aF4.4271
aF2.8961
aF4.0461
aF2.2124
aF3.8787
asI987
(lp860
F7.9804
aF8.0374
aF3.0356
aF2.1513
aF4.663
aF2.4391
aF2.2918
aF1.878
asI988
(lp861
F7.9535
aF4.1205
aF2.8057
aF2.1433
aF2.9057
aF2.6021
aF3.7664
aF3.8444
asI989
(lp862
F8.0427
aF4.3868
aF6.0388
aF2.4068
aF3.1265
aF2.5428
aF3.746
aF4.0125
asI990
(lp863
F8.0885
aF4.151
aF2.8881
aF3.7987
aF4.6672
aF2.4895
aF4.4299
aF2.0618
asI991
(lp864
F8.1472
aF4.1013
aF2.8536
aF3.4448
aF2.6405
aF2.3856
aF2.1706
aF3.5474
asI992
(lp865
F8.1005
aF4.13
aF5.8661
aF3.5665
aF2.5337
aF2.4916
aF2.1726
aF3.9451
asI993
(lp866
F8.0564
aF4.1495
aF2.8479
aF2.1987
aF3.0458
aF2.4927
aF2.095
aF1.9872
asI994
(lp867
F8.1347
aF4.3562
aF2.861
aF3.5854
aF4.8999
aF4.2951
aF2.2512
aF1.9608
asI995
(lp868
F7.5732
aF8.855
aF2.8488
aF4.3857
aF2.8239
aF2.5102
aF2.3152
aF4.0193
asI996
(lp869
F8.1013
aF4.2094
aF5.6813
aF5.0515
aF2.9739
aF2.3394
aF2.1775
aF1.9945
asI997
(lp870
F8.2297
aF4.2013
aF2.8714
aF5.4812
aF2.5119
aF2.3329
aF2.3047
aF3.6034
asI998
(lp871
F8.3177
aF8.4081
aF2.9252
aF4.0816
aF3.0213
aF2.389
aF2.274
aF2.0085
asI999
(lp872
F9.1698
aF4.3976
aF2.8912
aF2.2427
aF3.0034
aF2.5137
aF2.1687
aF3.6359
asI1000
(lp873
F8.42
aF4.3002
aF6.5444
aF5.0495
aF2.9851
aF4.5605
aF3.416
aF2.0152
asI1001
(lp874
F8.3351
aF4.614
aF2.9296
aF3.7279
aF5.3096
aF2.5262
aF2.2104
aF4.0521
asI1002
(lp875
F8.4344
aF8.508
aF2.9742
aF3.6658
aF5.0098
aF2.6065
aF2.1301
aF2.044
asI1003
(lp876
F8.2673
aF4.413
aF2.9108
aF2.2333
aF4.2563
aF4.6198
aF4.5974
aF2.0419
asI1004
(lp877
F8.296
aF4.3074
aF5.8805
aF2.6196
aF2.7226
aF4.7805
aF2.3612
aF2.0435
asI1005
(lp878
F8.3462
aF4.2958
aF3.0027
aF3.9401
aF4.1196
aF4.709
aF2.3346
aF2.0447
asI1006
(lp879
F8.4168
aF8.6738
aF2.9494
aF2.2573
aF2.5949
aF2.6112
aF2.3558
aF2.2208
asI1007
(lp880
F8.5373
aF4.3526
aF3.014
aF2.4866
aF3.0839
aF4.8488
aF2.3228
aF1.9877
asI1008
(lp881
F8.586
aF4.3725
aF4.9325
aF2.3111
aF3.0704
aF2.672
aF4.128
aF4.0657
asI1009
(lp882
F8.5222
aF4.4027
aF3.0131
aF3.7856
aF3.0643
aF2.6056
aF2.2504
aF2.0903
asI1010
(lp883
F8.6198
aF9.1142
aF3.0399
aF3.8468
aF2.8615
aF2.5827
aF2.4778
aF2.1331
asI1011
(lp884
F8.5437
aF8.5268
aF2.9855
aF2.3492
aF3.2364
aF5.069
aF2.3217
aF2.0843
asI1012
(lp885
F8.5864
aF4.4187
aF5.071
aF3.8293
aF2.7421
aF4.089
aF2.2888
aF2.1131
asI1013
(lp886
F8.55
aF4.4098
aF6.1833
aF2.3327
aF3.4337
aF2.7263
aF2.3371
aF2.1936
asI1014
(lp887
F8.5792
aF4.5825
aF3.0546
aF2.3231
aF3.162
aF5.0724
aF2.4358
aF4.1619
asI1015
(lp888
F8.6044
aF9.3728
aF3.0661
aF6.2688
aF3.011
aF2.6285
aF2.4193
aF2.1325
asI1016
(lp889
F8.7499
aF4.4666
aF3.0589
aF2.3511
aF3.14
aF2.6788
aF2.3815
aF4.1965
asI1017
(lp890
F8.8416
aF4.5656
aF3.0493
aF2.6984
aF2.7766
aF2.5864
aF2.3086
aF2.1299
asI1018
(lp891
F8.8105
aF4.5467
aF3.1143
aF2.3662
aF3.1544
aF2.5702
aF2.3303
aF2.1696
asI1019
(lp892
F10.9604
aF5.3627
aF6.6671
aF3.3089
aF3.2779
aF3.1223
aF2.6491
aF3.9991
asI1020
(lp893
F11.3553
aF10.1981
aF3.6885
aF2.71
aF4.9096
aF3.1168
aF2.6962
aF2.4095
asI1021
(lp894
F10.1413
aF5.2488
aF3.7107
aF3.1772
aF3.7885
aF4.5501
aF2.726
aF3.9642
asI1022
(lp895
F10.6632
aF5.6594
aF3.8833
aF6.012
aF3.2338
aF3.0674
aF4.5104
aF2.4573
asI1023
(lp896
F9.0587
aF8.8518
aF4.4049
aF2.4387
aF3.0254
aF2.7123
aF2.3335
aF2.1714
asI1024
(lp897
F8.9304
aF9.0583
aF3.2805
aF2.4119
aF3.2332
aF2.5474
aF2.3758
aF2.1924
as.