(dp0
I128
F0.13578
sI64
F0.135917
sI4096
F0.170613
sI4
F0.16639
sI1024
F0.169705
sI32
F0.201811
sI8
F0.197122
sI256
F0.139045
sI16384
F0.477061
sI16
F0.194843
sI8192
F0.274321
sI512
F0.168007
sI131072
F0.48052
sI32768
F0.479718
sI65536
F0.475626
sI2048
F0.170014
s.