(dp0
I0
(lp1
F7.3
aF3.31
asI1
(lp2
F7.29
aF2.16
asI2
(lp3
F7.29
aF3.33
asI3
(lp4
F7.29
aF3.37
asI4
(lp5
F7.29
aF3.31
asI5
(lp6
F7.28
aF2.22
asI6
(lp7
F7.27
aF2.23
asI7
(lp8
F7.29
aF2.21
asI8
(lp9
F7.29
aF2.2
asI9
(lp10
F7.28
aF3.34
asI10
(lp11
F7.3
aF2.16
asI11
(lp12
F7.3
aF3.3
asI12
(lp13
F7.29
aF3.3
asI13
(lp14
F7.29
aF2.21
asI14
(lp15
F7.28
aF2.19
asI15
(lp16
F7.29
aF3.33
asI16
(lp17
F7.29
aF3.27
asI17
(lp18
F7.29
aF2.17
asI18
(lp19
F7.29
aF2.19
asI19
(lp20
F7.29
aF2.16
asI20
(lp21
F7.28
aF3.3
asI21
(lp22
F7.28
aF3.28
asI22
(lp23
F7.28
aF2.15
asI23
(lp24
F7.28
aF3.34
asI24
(lp25
F7.28
aF3.25
asI25
(lp26
F7.29
aF2.16
asI26
(lp27
F7.29
aF2.17
asI27
(lp28
F7.28
aF3.26
asI28
(lp29
F7.29
aF2.24
asI29
(lp30
F7.3
aF3.33
asI30
(lp31
F7.29
aF2.11
asI31
(lp32
F7.29
aF3.31
asI32
(lp33
F7.28
aF3.28
asI33
(lp34
F7.29
aF2.16
asI34
(lp35
F7.28
aF3.31
asI35
(lp36
F7.29
aF2.13
asI36
(lp37
F7.29
aF3.3
asI37
(lp38
F7.28
aF3.3
asI38
(lp39
F7.28
aF2.1
asI39
(lp40
F7.3
aF3.24
asI40
(lp41
F7.28
aF2.19
asI41
(lp42
F7.29
aF3.26
asI42
(lp43
F7.28
aF2.12
asI43
(lp44
F7.29
aF2.14
asI44
(lp45
F7.29
aF3.27
asI45
(lp46
F7.29
aF2.18
asI46
(lp47
F7.28
aF3.33
asI47
(lp48
F7.28
aF2.09
asI48
(lp49
F8.51
aF2.18
asI49
(lp50
F7.26
aF4.47
asI50
(lp51
F9.56
aF2.17
asI51
(lp52
F7.26
aF4.47
asI52
(lp53
F9.52
aF2.22
asI53
(lp54
F9.58
aF2.16
asI54
(lp55
F7.31
aF4.42
asI55
(lp56
F8.1
aF3.64
asI56
(lp57
F9.59
aF2.15
asI57
(lp58
F7.31
aF4.43
asI58
(lp59
F7.33
aF4.41
asI59
(lp60
F9.56
aF2.18
asI60
(lp61
F7.33
aF4.41
asI61
(lp62
F9.59
aF2.15
asI62
(lp63
F9.59
aF2.15
as.