(dp0
I0
(lp1
F2.08
aF9.22
asI1
(lp2
F2.08
aF9.45
asI2
(lp3
F2.07
aF9.32
asI3
(lp4
F2.09
aF9.42
asI4
(lp5
F2.07
aF9.34
asI5
(lp6
F2.07
aF9.37
asI6
(lp7
F2.07
aF9.39
asI7
(lp8
F2.07
aF9.41
asI8
(lp9
F2.08
aF9.34
asI9
(lp10
F2.08
aF9.43
asI10
(lp11
F2.08
aF9.39
asI11
(lp12
F2.08
aF9.35
asI12
(lp13
F2.33
aF9.21
asI13
(lp14
F3.98
aF7.57
asI14
(lp15
F2.06
aF9.51
as.