(dp0
I0
(lp1
F6.38
aF2.53
asI1
(lp2
F6.38
aF2.57
asI2
(lp3
F6.38
aF3.77
asI3
(lp4
F6.38
aF2.49
asI4
(lp5
F6.38
aF2.54
asI5
(lp6
F6.38
aF2.55
asI6
(lp7
F6.38
aF2.57
asI7
(lp8
F6.38
aF3.85
asI8
(lp9
F6.38
aF2.63
asI9
(lp10
F6.38
aF2.6
asI10
(lp11
F6.38
aF3.82
asI11
(lp12
F6.38
aF2.46
asI12
(lp13
F6.38
aF2.52
asI13
(lp14
F6.38
aF3.84
asI14
(lp15
F6.38
aF3.86
asI15
(lp16
F6.38
aF3.88
asI16
(lp17
F6.38
aF2.54
asI17
(lp18
F6.38
aF2.5
asI18
(lp19
F6.38
aF2.51
asI19
(lp20
F6.38
aF2.57
asI20
(lp21
F6.38
aF2.5
asI21
(lp22
F6.38
aF2.62
asI22
(lp23
F6.38
aF3.82
asI23
(lp24
F6.38
aF3.84
asI24
(lp25
F6.38
aF2.52
asI25
(lp26
F6.38
aF2.62
asI26
(lp27
F6.39
aF2.52
asI27
(lp28
F6.38
aF2.53
asI28
(lp29
F6.38
aF3.72
asI29
(lp30
F6.38
aF2.44
asI30
(lp31
F6.38
aF2.5
asI31
(lp32
F6.38
aF2.49
asI32
(lp33
F6.38
aF2.5
asI33
(lp34
F6.38
aF3.83
asI34
(lp35
F6.38
aF3.8
asI35
(lp36
F6.38
aF2.54
asI36
(lp37
F6.38
aF2.53
asI37
(lp38
F6.38
aF2.45
asI38
(lp39
F6.38
aF3.77
asI39
(lp40
F6.38
aF2.56
asI40
(lp41
F6.38
aF2.52
asI41
(lp42
F6.38
aF2.52
asI42
(lp43
F7.85
aF2.42
asI43
(lp44
F7.81
aF2.47
asI44
(lp45
F7.83
aF2.45
asI45
(lp46
F7.87
aF2.41
asI46
(lp47
F6.37
aF4.53
asI47
(lp48
F8.49
aF2.42
asI48
(lp49
F6.37
aF4.53
asI49
(lp50
F8.45
aF2.45
asI50
(lp51
F6.86
aF4.04
asI51
(lp52
F8.44
aF2.47
asI52
(lp53
F8.42
aF2.49
asI53
(lp54
F8.39
aF2.52
asI54
(lp55
F8.4
aF2.51
as.