(dp0
I0
(lp1
F2.05
aF5.97
asI1
(lp2
F2.06
aF6.15
asI2
(lp3
F2.06
aF6.1
asI3
(lp4
F2.06
aF6.15
asI4
(lp5
F2.05
aF6.17
asI5
(lp6
F2.05
aF6.22
asI6
(lp7
F2.06
aF6.09
asI7
(lp8
F2.06
aF6.2
asI8
(lp9
F2.06
aF6.11
asI9
(lp10
F2.06
aF6.13
asI10
(lp11
F2.05
aF6.05
asI11
(lp12
F2.06
aF6.17
asI12
(lp13
F2.31
aF5.96
asI13
(lp14
F2.05
aF6.23
asI14
(lp15
F2.33
aF5.95
asI15
(lp16
F2.04
aF6.25
asI16
(lp17
F2.31
aF5.99
asI17
(lp18
F2.04
aF6.26
asI18
(lp19
F2.37
aF5.93
asI19
(lp20
F2.11
aF6.2
asI20
(lp21
F2.25
aF6.06
asI21
(lp22
F2.04
aF6.29
asI22
(lp23
F2.24
aF6.09
as.