(dp0
I0
(lp1
F3.78
aF4.4
asI1
(lp2
F3.79
aF4.58
asI2
(lp3
F3.79
aF4.62
asI3
(lp4
F3.78
aF4.64
asI4
(lp5
F3.78
aF4.62
asI5
(lp6
F3.79
aF4.57
asI6
(lp7
F3.79
aF4.48
asI7
(lp8
F3.79
aF4.56
asI8
(lp9
F3.79
aF4.63
asI9
(lp10
F3.79
aF4.57
asI10
(lp11
F3.79
aF4.59
asI11
(lp12
F3.78
aF4.49
asI12
(lp13
F3.78
aF4.58
asI13
(lp14
F3.78
aF4.45
asI14
(lp15
F3.78
aF4.62
asI15
(lp16
F3.79
aF4.35
asI16
(lp17
F3.79
aF4.6
asI17
(lp18
F3.78
aF4.48
asI18
(lp19
F3.78
aF4.62
asI19
(lp20
F3.78
aF4.43
asI20
(lp21
F3.79
aF4.64
asI21
(lp22
F3.78
aF4.56
asI22
(lp23
F3.78
aF4.38
asI23
(lp24
F3.78
aF4.58
asI24
(lp25
F4.05
aF4.39
asI25
(lp26
F3.85
aF4.59
asI26
(lp27
F4.03
aF4.41
asI27
(lp28
F3.82
aF4.62
asI28
(lp29
F3.91
aF4.54
asI29
(lp30
F3.77
aF4.69
asI30
(lp31
F4.02
aF4.45
as.