(dp0
I0
(lp1
F5.51
aF2.86
asI1
(lp2
F5.51
aF3.05
asI2
(lp3
F5.51
aF2.84
asI3
(lp4
F5.51
aF3.02
asI4
(lp5
F5.51
aF2.89
asI5
(lp6
F5.51
aF3.0
asI6
(lp7
F5.51
aF2.88
asI7
(lp8
F5.51
aF3.02
asI8
(lp9
F5.51
aF2.99
asI9
(lp10
F5.52
aF3.01
asI10
(lp11
F5.51
aF2.99
asI11
(lp12
F5.51
aF2.98
asI12
(lp13
F5.51
aF2.95
asI13
(lp14
F5.51
aF2.84
asI14
(lp15
F5.51
aF2.99
asI15
(lp16
F5.51
aF2.88
asI16
(lp17
F5.51
aF3.04
asI17
(lp18
F5.51
aF2.89
asI18
(lp19
F5.51
aF2.99
asI19
(lp20
F5.51
aF2.86
asI20
(lp21
F5.51
aF3.0
asI21
(lp22
F5.51
aF2.99
asI22
(lp23
F5.51
aF2.93
asI23
(lp24
F5.51
aF2.97
asI24
(lp25
F5.51
aF2.93
asI25
(lp26
F5.51
aF2.91
asI26
(lp27
F5.52
aF3.0
asI27
(lp28
F5.51
aF2.88
asI28
(lp29
F5.51
aF3.03
asI29
(lp30
F5.51
aF3.0
asI30
(lp31
F5.51
aF3.03
asI31
(lp32
F5.51
aF3.05
asI32
(lp33
F5.51
aF2.96
asI33
(lp34
F5.51
aF3.02
asI34
(lp35
F5.51
aF2.99
asI35
(lp36
F5.51
aF3.0
asI36
(lp37
F5.68
aF2.9
asI37
(lp38
F5.62
aF2.96
asI38
(lp39
F5.72
aF2.86
asI39
(lp40
F5.62
aF2.96
asI40
(lp41
F5.7
aF2.88
asI41
(lp42
F5.58
aF3.0
asI42
(lp43
F5.74
aF2.84
asI43
(lp44
F5.58
aF3.01
asI44
(lp45
F5.68
aF2.9
asI45
(lp46
F5.57
aF3.01
asI46
(lp47
F5.69
aF2.9
as.